Archive member included because of file (symbol)

../../lib/libcjtmos.a(communication.o)
                              slipLogin.o (SetSerialPortSpeed)
../../lib/libcjtmos.a(console.o)
                              slipLogin.o (getch)
../../lib/libcjtmos.a(dpi.o)  slipDev.o (registerNewDevice)
../../lib/libcjtmos.a(fclose.o)
                              slipConfig.o (fclose)
../../lib/libcjtmos.a(fflush.o)
                              ../../lib/libcjtmos.a(fclose.o) (fflush)
../../lib/libcjtmos.a(file.o)
                              ../../lib/libcjtmos.a(fclose.o) (close)
../../lib/libcjtmos.a(filebuf.o)
                              ../../lib/libcjtmos.a(fflush.o) (wbuf)
../../lib/libcjtmos.a(filedir.o)
                              slipStack.o (mkdir)
../../lib/libcjtmos.a(fopen.o)
                              slipConfig.o (fopen)
../../lib/libcjtmos.a(fseek.o)
                              ../../lib/libcjtmos.a(file.o) (fseek)
../../lib/libcjtmos.a(init.o)
                              ../../libc/stlibc.o (init_libc)
../../lib/libcjtmos.a(malloc.o)
                              ../../lib/libcjtmos.a(init.o) (malloc_init)
../../lib/libcjtmos.a(mallocMain.o)
                              slipStack.o (free)
../../lib/libcjtmos.a(numbers.o)
                              ../../lib/libcjtmos.a(malloc.o) (p32)
../../lib/libcjtmos.a(printf.o)
                              slipConfig.o (printf)
../../lib/libcjtmos.a(process.o)
                              slipService.o (SwitchToThreadEx)
../../lib/libcjtmos.a(scall.o)
                              ../../lib/libcjtmos.a(communication.o) (scall)
../../lib/libcjtmos.a(sprintf.o)
                              slipLogin.o (sprintf)
../../lib/libcjtmos.a(sscanf.o)
                              slipConfig.o (sscanf)
../../lib/libcjtmos.a(strchr.o)
                              ../../lib/libcjtmos.a(fopen.o) (strchr)
../../lib/libcjtmos.a(string.o)
                              ../../lib/libcjtmos.a(file.o) (memset)
../../lib/libcjtmos.a(strncat.o)
                              ../../lib/libcjtmos.a(string.o) (strncat)
../../lib/libcjtmos.a(XXidentification.o)
                              ../../lib/libcjtmos.a(init.o) (XXidentificationString)
../../lib/libcjtmos.a(atexit.o)
                              ../../lib/libcjtmos.a(init.o) (run_atexit)
../../lib/libcjtmos.a(ctypefamily.o)
                              ../../lib/libcjtmos.a(printf.o) (isdigit)
../../lib/libcjtmos.a(cvt.o)  ../../lib/libcjtmos.a(string.o) (ecvt)
../../lib/libcjtmos.a(date.o)
                              ../../lib/libcjtmos.a(process.o) (getdate)
../../lib/libcjtmos.a(error.o)
                              ../../lib/libcjtmos.a(filebuf.o) (panic)
../../lib/libcjtmos.a(floatconv.o)
                              ../../lib/libcjtmos.a(string.o) (_IO_strtod)
../../lib/libcjtmos.a(fprintf.o)
                              ../../lib/libcjtmos.a(error.o) (fprintf)
../../lib/libcjtmos.a(modf.o)
                              ../../lib/libcjtmos.a(cvt.o) (modf)
../../lib/libcjtmos.a(floor.o)
                              ../../lib/libcjtmos.a(modf.o) (floor)

Allocating common symbols
Common symbol       size              file

stdout              0x4               ../../lib/libcjtmos.a(file.o)
___djgpp_exception_state_ptr
                    0x4               ../../lib/libcjtmos.a(process.o)
MALSTRU             0x8               slip.o
Client              0x2c              slipDev.o
slip                0x8               slipLogin.o
stdin               0x4               ../../lib/libcjtmos.a(file.o)
stderr              0x4               ../../lib/libcjtmos.a(file.o)
sp                  0x14              slipStack.o
sldb                0x640             slipStack.o

Memory Configuration

Name             Origin             Length             Attributes
*default*        0x0000000000000000 0xffffffffffffffff

Linker script and memory map

LOAD ../../libc/stlibc.o
LOAD slip.o
LOAD slipConfig.o
LOAD slipDev.o
LOAD slipLogin.o
LOAD slipMain.o
LOAD slipService.o
LOAD slipStack.o

.text           0x0000000080004000     0x76e8
                0x0000000080004000                _start = .
                0x0000000080004000                appregionstart = .
 *(.text)
 .text          0x0000000080004000       0x28 ../../libc/stlibc.o
                0x0000000080004000                libc_startup
 *fill*         0x0000000080004028        0x8 00
 .text          0x0000000080004030      0x1b6 slip.o
                0x0000000080004130                slip_send_packet
                0x0000000080004030                slip_recv_char
                0x0000000080004110                slip_send_char
                0x0000000080004070                slip_recv_packet
 *fill*         0x00000000800041e6        0xa 00
 .text          0x00000000800041f0      0x1d8 slipConfig.o
                0x00000000800041f0                ProcessParameter
                0x00000000800042a0                slipReadConfiguration
 *fill*         0x00000000800043c8        0x8 00
 .text          0x00000000800043d0      0x1e2 slipDev.o
                0x0000000080004590                slip_register_device
                0x00000000800043d0                slipDevCall
 *fill*         0x00000000800045b2        0xe 00
 .text          0x00000000800045c0      0x31a slipLogin.o
                0x00000000800045c0                slipLogin
 *fill*         0x00000000800048da        0x6 00
 .text          0x00000000800048e0       0x8b slipMain.o
                0x00000000800048e0                main
 *fill*         0x000000008000496b        0x5 00
 .text          0x0000000080004970      0x144 slipService.o
                0x00000000800049d0                slipServiceMain
                0x0000000080004970                SlipRespondClient
 *fill*         0x0000000080004ab4        0xc 00
 .text          0x0000000080004ac0      0x588 slipStack.o
                0x0000000080004de0                SavePacket
                0x0000000080004b40                slipGetTraPacket
                0x0000000080004b70                slipCleanUpQueues
                0x0000000080004ff0                slipStack
                0x0000000080004be0                slipGetQueuedRecPacket
                0x0000000080004f80                slipStackCall
                0x0000000080004c50                slipAddPacketToTraQueue
                0x0000000080004e50                slipTransmitPackets
                0x0000000080004b00                slipGetFreeTraEntry
                0x0000000080004ac0                slipGetFreeRecEntry
                0x0000000080004cf0                slipAddPacketToRecQueue
                0x0000000080004fa0                slipStackInit
                0x0000000080004ef0                slipRecNewPackets
 .text          0x0000000080005048      0x112 ../../lib/libcjtmos.a(communication.o)
                0x0000000080005065                SerialWaitString
                0x00000000800050dc                SerialGet
                0x0000000080005115                SerialPuts
                0x0000000080005048                SetSerialPortSpeed
                0x00000000800050f8                SerialPut
 *fill*         0x000000008000515a        0x2 00
 .text          0x000000008000515c      0x2a0 ../../lib/libcjtmos.a(console.o)
                0x00000000800052bc                putchar
                0x00000000800053c6                GetCTRL
                0x0000000080005186                gettextinfo
                0x000000008000524e                clrscr
                0x000000008000520c                wherey
                0x0000000080005316                gets
                0x00000000800053e1                GetALT
                0x00000000800052fa                puts
                0x00000000800052ac                putch
                0x0000000080005291                getch
                0x0000000080005269                getch1
                0x00000000800051f1                wherex
                0x00000000800051d5                textbackground
                0x0000000080005227                delay
                0x00000000800052dd                gotoxy
                0x00000000800051b9                textcolor
                0x000000008000515c                ESCLOCK
 .text          0x00000000800053fc       0xe2 ../../lib/libcjtmos.a(dpi.o)
                0x000000008000548a                getdevicename
                0x00000000800054c3                getcurdev
                0x0000000080005469                registerNewDevice
                0x00000000800053fc                DeviceCall
                0x00000000800054a7                getdevicenrbyname
 *fill*         0x00000000800054de        0x2 00
 .text          0x00000000800054e0       0x79 ../../lib/libcjtmos.a(fclose.o)
                0x00000000800054e0                fclose
 *fill*         0x0000000080005559        0x3 00
 .text          0x000000008000555c       0x33 ../../lib/libcjtmos.a(fflush.o)
                0x000000008000555c                fflush
 *fill*         0x000000008000558f        0x1 00
 .text          0x0000000080005590      0x428 ../../lib/libcjtmos.a(file.o)
                0x000000008000599c                _formatDrive
                0x00000000800056ed                fgets
                0x00000000800056a7                remove
                0x0000000080005827                lseek
                0x000000008000567a                rename
                0x00000000800057d0                write
                0x00000000800055d0                fexist
                0x000000008000563a                fsizeof
                0x00000000800055a8                ferror
                0x00000000800057b2                read
                0x0000000080005697                unlink
                0x00000000800056c3                __fnewstream
                0x0000000080005845                fread
                0x000000008000560e                StringCheck
                0x00000000800055a3                clearerr
                0x0000000080005590                putc
                0x00000000800058a8                fwrite
                0x00000000800055bc                rewind
                0x00000000800055e0                __fexist
                0x00000000800055b2                fileno
                0x00000000800057ee                open
                0x0000000080005984                formatDrive
                0x0000000080005759                fputs
                0x000000008000580b                close
 .text          0x00000000800059b8      0x322 ../../lib/libcjtmos.a(filebuf.o)
                0x0000000080005c83                setlinebuf
                0x0000000080005c99                setvbuf
                0x0000000080005c62                setbuffer
                0x00000000800059b8                rbuf
                0x0000000080005a27                __fenlargebuf
                0x0000000080005a9f                fgetc
                0x0000000080005b5e                fputc
                0x00000000800059ec                wbuf
                0x0000000080005c3f                setbuf
 *fill*         0x0000000080005cda        0x2 00
 .text          0x0000000080005cdc       0x38 ../../lib/libcjtmos.a(filedir.o)
                0x0000000080005cf8                rmdir
                0x0000000080005cdc                mkdir
 .text          0x0000000080005d14      0x25f ../../lib/libcjtmos.a(fopen.o)
                0x0000000080005d29                _fopen
                0x0000000080005d14                fopen
 *fill*         0x0000000080005f73        0x1 00
 .text          0x0000000080005f74       0xa0 ../../lib/libcjtmos.a(fseek.o)
                0x0000000080005f74                fseek
 .text          0x0000000080006014      0x177 ../../lib/libcjtmos.a(init.o)
                0x00000000800060fa                init_libc
                0x0000000080006014                libc_receiveargs
                0x00000000800060b6                libc_allocate_standard_streams
 *fill*         0x000000008000618b        0x1 00
 .text          0x000000008000618c      0x383 ../../lib/libcjtmos.a(malloc.o)
                0x000000008000627d                malloc_reuse_chunk
                0x00000000800061d4                malloc_create_free_chunk
                0x000000008000632b                malloc_getamountfree
                0x000000008000631d                malloc_lastchunk
                0x00000000800062ff                malloc_isfree
                0x00000000800061ab                malloc_init
                0x00000000800061f4                malloc_create_hunt
                0x0000000080006461                malloc_optimize
                0x0000000080006312                malloc_nextchunk
                0x0000000080006214                malloc_hunt
                0x000000008000618c                malloc_store_info
                0x00000000800062f1                malloc_getsize
                0x000000008000623f                malloc_hunt_jump
                0x0000000080006376                malloc_dumpchunkinfo
 *fill*         0x000000008000650f        0x1 00
 .text          0x0000000080006510       0xf6 ../../lib/libcjtmos.a(mallocMain.o)
                0x000000008000652c                malloc
                0x0000000080006548                __malloc
                0x00000000800065ef                __free
                0x0000000080006510                free
 *fill*         0x0000000080006606        0x2 00
 .text          0x0000000080006608      0x101 ../../lib/libcjtmos.a(numbers.o)
                0x00000000800066c9                pd32
                0x00000000800066e9                pdz32
                0x000000008000662a                p16
                0x0000000080006695                pdh32
                0x0000000080006608                p8
                0x0000000080006675                p32z
                0x000000008000664d                p32
 *fill*         0x0000000080006709        0x3 00
 .text          0x000000008000670c      0x16c ../../lib/libcjtmos.a(printf.o)
                0x000000008000670c                printf
                0x0000000080006726                vprintf
 .text          0x0000000080006878      0x691 ../../lib/libcjtmos.a(process.o)
                0x0000000080006d81                MilSleep
                0x00000000800069e8                GetCurrentTerminal
                0x0000000080006b85                strerror
                0x0000000080006d4b                SwitchToThread
                0x0000000080006878                SetTerminalOwner
                0x0000000080006b99                WaitProcessTermination
                0x0000000080006c67                cexecEx
                0x0000000080006eff                getpagesize
                0x0000000080006dd4                getpid
                0x00000000800068e8                GetThreadUniquePID
                0x0000000080006b37                getc
                0x0000000080006c4b                cexec
                0x000000008000693f                enable_irq
                0x0000000080006bb5                system
                0x0000000080006e77                GetThreadCount
                0x0000000080006ed1                sleep
                0x0000000080006904                diskChange
                0x0000000080006e06                GetThreadPriority
                0x0000000080006b5e                abort
                0x00000000800069cd                NewTerminal
                0x0000000080006a36                globalcopy
                0x0000000080006b54                stackavail
                0x0000000080006dc4                ExitThread
                0x0000000080006bda                bgexec
                0x0000000080006dfc                SetThreadPriority
                0x0000000080006cf5                kill
                0x0000000080006a71                IdentifyThread
                0x0000000080006b1b                chdir
                0x0000000080006d9d                Sleep
                0x0000000080006d66                GetTickCount
                0x0000000080006994                OutputTerminalKeyboardBuffer
                0x00000000800069b1                InputTerminalKeyboardBuffer
                0x0000000080006977                CopyTerminal
                0x0000000080006e5b                GetThreadMemoryUsage
                0x0000000080006a19                SetThreadTerminal
                0x0000000080006aaa                receiveMessage
                0x0000000080006cff                KillThread
                0x0000000080006e3e                GetThreadName
                0x00000000800068b1                CreateTerminal
                0x00000000800069fd                GetThreadTerminal
                0x0000000080006b47                getchar
                0x0000000080006e92                SleepSecond
                0x0000000080006de1                GetCurrentThread
                0x0000000080006cbc                GetAmountFree
                0x0000000080006afe                getcwd
                0x0000000080006e22                GetThreadSpending
                0x0000000080006cc6                GetProgramStart
                0x0000000080006920                setint
                0x0000000080006ac6                sendMessage
                0x0000000080006bf6                bgexecEx
                0x0000000080006a56                GetSeconds
                0x0000000080006d1b                exit
                0x0000000080006a8e                GetThreadPID
                0x0000000080006cda                GetMemorySize
                0x000000008000695b                GetCursorLocation
                0x00000000800068cc                SwitchToThreadEx
                0x0000000080006ae3                startMessageBox
                0x0000000080006b8f                clock
                0x0000000080006895                GetTerminalOwner
                0x0000000080006cd0                GetProgramEnd
 *fill*         0x0000000080006f09        0x7 00
 .text          0x0000000080006f10       0x2c ../../lib/libcjtmos.a(scall.o)
                0x0000000080006f10                scall
 .text          0x0000000080006f3c      0x210 ../../lib/libcjtmos.a(sprintf.o)
                0x0000000080006f59                vsprintf
                0x0000000080006f74                _vsprintf
                0x0000000080006f3c                sprintf
 .text          0x000000008000714c      0x26d ../../lib/libcjtmos.a(sscanf.o)
                0x000000008000714c                sscanf
                0x0000000080007169                svscanf
 *fill*         0x00000000800073b9        0x3 00
 .text          0x00000000800073bc      0x105 ../../lib/libcjtmos.a(strchr.o)
                0x00000000800073bc                strrchr
                0x00000000800073cf                strchr
 *fill*         0x00000000800074c1        0x3 00
 .text          0x00000000800074c4      0xda8 ../../lib/libcjtmos.a(string.o)
                0x00000000800075a9                strcpy
                0x0000000080007dfd                vt2202asc
                0x0000000080008217                StretchPrint
                0x00000000800076bc                str2int
                0x000000008000765f                memcpy
                0x0000000080007ddf                asc2vt220
                0x00000000800080d1                sdouble
                0x00000000800074c4                bzero
                0x0000000080007e4f                hex2int
                0x0000000080007a59                _sdec32
                0x00000000800077f2                shex16
                0x0000000080007f63                readStringEx
                0x0000000080008095                strtod
                0x00000000800080a8                pdouble
                0x0000000080008066                atof
                0x0000000080007687                strcat
                0x0000000080007844                shex8
                0x0000000080007f0e                strstr
                0x0000000080007cc3                CountWords
                0x00000000800079f6                sdec32
                0x0000000080007ec7                strncmp
                0x000000008000772b                shex32z
                0x00000000800074d9                bcopy
                0x000000008000807d                printfloat
                0x000000008000763e                memset
                0x0000000080008078                stringfloat
                0x0000000080008041                skipSpaces
                0x00000000800075dd                strcmp
                0x00000000800074ef                GetRunningNumber
                0x00000000800074ff                sptstr
                0x0000000080007c9b                isValidString
                0x0000000080008001                seekTowardEnd
                0x0000000080007d2e                strcpyarg
                0x00000000800076ac                dec2int
                0x00000000800077a0                shex32
                0x0000000080008056                atoi
                0x0000000080007584                strlen
                0x000000008000786f                sdec32z
                0x0000000080007a46                sudec32
                0x0000000080007e1b                hexchar2int
 .text          0x000000008000826c       0x8c ../../lib/libcjtmos.a(strncat.o)
                0x000000008000826c                strncat
 .text          0x00000000800082f8       0x20 ../../lib/libcjtmos.a(atexit.o)
                0x00000000800082f8                run_atexit
                0x00000000800082fd                atexit
 .text          0x0000000080008318      0x214 ../../lib/libcjtmos.a(ctypefamily.o)
                0x00000000800084b9                islower
                0x0000000080008318                tolower
                0x0000000080008458                ispunct
                0x00000000800084a8                isspace
                0x0000000080008462                isxdigit
                0x00000000800084d2                isupper
                0x00000000800083b2                isalpha
                0x0000000080008522                isgraph
                0x00000000800083a2                isalnum
                0x0000000080008518                isprint
                0x0000000080008408                isdigit
                0x000000008000844e                iscntrl
                0x000000008000835f                toupper
 .text          0x000000008000852c      0x2a3 ../../lib/libcjtmos.a(cvt.o)
                0x000000008000854a                fcvt
                0x000000008000852c                ecvt
 *fill*         0x00000000800087cf        0x1 00
 .text          0x00000000800087d0       0x8e ../../lib/libcjtmos.a(date.o)
                0x00000000800087e4                asctime
                0x00000000800087d0                utime
                0x00000000800087d5                utimes
                0x0000000080008838                settimeofday
                0x00000000800087e9                ctime
                0x00000000800087da                mktime
                0x0000000080008842                getdate
                0x000000008000882e                gettimeofday
                0x0000000080008816                localtime
                0x0000000080008820                time
                0x00000000800087f3                strftime
                0x00000000800087fd                strptime
                0x000000008000880c                gmtime
                0x0000000080008807                tzset
 *fill*         0x000000008000885e        0x2 00
 .text          0x0000000080008860       0x8d ../../lib/libcjtmos.a(error.o)
                0x00000000800088d2                perror
                0x0000000080008860                panic
                0x000000008000888e                LIBCERROR
 *fill*         0x00000000800088ed        0x3 00
 .text          0x00000000800088f0     0x2d1e ../../lib/libcjtmos.a(floatconv.o)
                0x00000000800093b1                _IO_strtod
                0x000000008000a46f                _IO_dtoa
 *fill*         0x000000008000b60e        0x2 00
 .text          0x000000008000b610       0x94 ../../lib/libcjtmos.a(fprintf.o)
                0x000000008000b610                fprintf
                0x000000008000b632                vfprintf
 .text          0x000000008000b6a4       0x1e ../../lib/libcjtmos.a(modf.o)
                0x000000008000b6a4                modf
 *fill*         0x000000008000b6c2        0x2 00
 .text          0x000000008000b6c4       0x24 ../../lib/libcjtmos.a(floor.o)
                0x000000008000b6c4                floor
                0x000000008000b6e8                etext = .
                0x000000008000b6e8                _etext = .

.data           0x000000008000b6e8      0xedb
 *(.data)
 *fill*         0x000000008000b6e8       0x18 00
 .data          0x000000008000b700       0xe4 slipConfig.o
                0x000000008000b780                user
                0x000000008000b700                passwd
 *fill*         0x000000008000b7e4       0x1c 00
 .data          0x000000008000b800       0x84 ../../lib/libcjtmos.a(process.o)
                0x000000008000b820                SysCWD
                0x000000008000b800                SysSearchPath
 .data          0x000000008000b884        0x4 ../../lib/libcjtmos.a(XXidentification.o)
                0x000000008000b884                XXidentificationString
 *fill*         0x000000008000b888       0x18 00
 .data          0x000000008000b8a0      0x148 ../../lib/libcjtmos.a(floatconv.o)
 *(.rodata*)
 .rodata.str1.1
                0x000000008000b9e8       0x7b slipConfig.o
 *fill*         0x000000008000ba63        0x1 00
 .rodata.str1.4
                0x000000008000ba64       0x29 slipConfig.o
 .rodata.str1.1
                0x000000008000ba8d       0x11 slipDev.o
 *fill*         0x000000008000ba9e        0x2 00
 .rodata.str1.4
                0x000000008000baa0      0x10d slipDev.o
 .rodata.str1.1
                0x000000008000bbad      0x15d slipLogin.o
 *fill*         0x000000008000bd0a        0x2 00
 .rodata.str1.4
                0x000000008000bd0c       0xe7 slipLogin.o
 .rodata.str1.1
                0x000000008000bdf3        0x6 slipMain.o
 *fill*         0x000000008000bdf9        0x3 00
 .rodata.str1.4
                0x000000008000bdfc       0x79 slipMain.o
 *fill*         0x000000008000be75        0x3 00
 .rodata.str1.4
                0x000000008000be78      0x130 slipStack.o
 .rodata.str1.1
                0x000000008000bfa8       0x78 slipStack.o
 .rodata.str1.1
                0x000000008000c020        0xc ../../lib/libcjtmos.a(console.o)
 .rodata.str1.1
                0x000000008000c02c        0xb ../../lib/libcjtmos.a(dpi.o)
 *fill*         0x000000008000c037        0x1 00
 .rodata.str1.4
                0x000000008000c038       0x28 ../../lib/libcjtmos.a(dpi.o)
 .rodata.str1.4
                0x000000008000c060       0x62 ../../lib/libcjtmos.a(file.o)
 .rodata.str1.1
                0x000000008000c0c2        0xa ../../lib/libcjtmos.a(file.o)
 .rodata.str1.1
                0x000000008000c0cc       0x17 ../../lib/libcjtmos.a(filebuf.o)
 .rodata.str1.1
                0x000000008000c0e3        0x6 ../../lib/libcjtmos.a(filedir.o)
 *fill*         0x000000008000c0e9        0x3 00
 .rodata.str1.4
                0x000000008000c0ec       0x2e ../../lib/libcjtmos.a(filedir.o)
 .rodata.str1.1
                0x000000008000c11a       0x24 ../../lib/libcjtmos.a(fopen.o)
 *fill*         0x000000008000c13e        0x2 00
 .rodata.str1.4
                0x000000008000c140       0x20 ../../lib/libcjtmos.a(init.o)
 .rodata.str1.4
                0x000000008000c160       0x2a ../../lib/libcjtmos.a(malloc.o)
 .rodata.str1.1
                0x000000008000c18a       0x35 ../../lib/libcjtmos.a(malloc.o)
 *fill*         0x000000008000c1bf        0x1 00
 .rodata.str1.4
                0x000000008000c1c0       0x77 ../../lib/libcjtmos.a(mallocMain.o)
 .rodata.str1.1
                0x000000008000c237        0x2 ../../lib/libcjtmos.a(numbers.o)
 .rodata.str1.1
                0x000000008000c239        0x7 ../../lib/libcjtmos.a(printf.o)
 .rodata.str1.4
                0x000000008000c240       0x81 ../../lib/libcjtmos.a(process.o)
 .rodata.str1.1
                0x000000008000c2c1        0x1 ../../lib/libcjtmos.a(process.o)
 .rodata.str1.1
                0x000000008000c2c2        0x8 ../../lib/libcjtmos.a(sprintf.o)
 .rodata.str1.1
                0x000000008000c2ca        0x2 ../../lib/libcjtmos.a(sscanf.o)
 .rodata        0x000000008000c2cc       0x8c ../../lib/libcjtmos.a(string.o)
 .rodata.str1.1
                0x000000008000c358       0x31 ../../lib/libcjtmos.a(string.o)
 *fill*         0x000000008000c389        0x3 00
 .rodata.str1.4
                0x000000008000c38c       0x36 ../../lib/libcjtmos.a(XXidentification.o)
 .rodata.str1.1
                0x000000008000c3c2       0x5e ../../lib/libcjtmos.a(ctypefamily.o)
 .rodata.cst4   0x000000008000c420        0x4 ../../lib/libcjtmos.a(cvt.o)
 *fill*         0x000000008000c424        0x4 00
 .rodata.cst8   0x000000008000c428       0x10 ../../lib/libcjtmos.a(cvt.o)
 .rodata.str1.1
                0x000000008000c438       0x4c ../../lib/libcjtmos.a(error.o)
 *fill*         0x000000008000c484        0x4 00
 .rodata.cst8   0x000000008000c488       0x38 ../../lib/libcjtmos.a(floatconv.o)
 .rodata.cst4   0x000000008000c4c0       0x24 ../../lib/libcjtmos.a(floatconv.o)
 .rodata        0x000000008000c4e4       0xd0 ../../lib/libcjtmos.a(floatconv.o)
 .rodata.str1.1
                0x000000008000c5b4        0xf ../../lib/libcjtmos.a(floatconv.o)
                0x000000008000c5c3                edata = .
                0x000000008000c5c3                _edata = .

.bss            0x000000008000c5c3     0x23ad
 *(.bss)
 *fill*         0x000000008000c5c3        0x1 00
 .bss           0x000000008000c5c4        0x1 slip.o
                0x000000008000c5c4                slipOnline
 *fill*         0x000000008000c5c5       0x1b 00
 .bss           0x000000008000c5e0      0x220 slipConfig.o
                0x000000008000c5e0                debug
 .bss           0x000000008000c800     0x1040 slipDev.o
 .bss           0x000000008000d840       0x72 slipLogin.o
 *fill*         0x000000008000d8b2        0x2 00
 *fill*         0x000000008000d8b4        0xc 00
 .bss           0x000000008000d8c0      0x844 slipService.o
                0x000000008000d8c0                waitingClient
 .bss           0x000000008000e104        0x8 slipStack.o
                0x000000008000e104                n_packet
                0x000000008000e108                DO_PACKET_CAPTURING
 *fill*         0x000000008000e10c       0x14 00
 .bss           0x000000008000e120      0x12c ../../lib/libcjtmos.a(init.o)
                0x000000008000e120                _libc_argc
                0x000000008000e124                _libc_argv
 .bss           0x000000008000e24c        0x8 ../../lib/libcjtmos.a(process.o)
                0x000000008000e24c                errno
                0x000000008000e250                __djgpp_set_sigint_key
 .bss           0x000000008000e254        0x4 ../../lib/libcjtmos.a(string.o)
 .bss           0x000000008000e258        0x4 ../../lib/libcjtmos.a(atexit.o)
 *fill*         0x000000008000e25c        0x4 00
 .bss           0x000000008000e260       0x50 ../../lib/libcjtmos.a(cvt.o)
 .bss           0x000000008000e2b0        0x8 ../../lib/libcjtmos.a(floatconv.o)
 *(COMMON)
 COMMON         0x000000008000e2b8        0x8 slip.o
                                          0x0 (size before relaxing)
                0x000000008000e2b8                MALSTRU
 COMMON         0x000000008000e2c0       0x2c slipDev.o
                                          0x0 (size before relaxing)
                0x000000008000e2c0                Client
 COMMON         0x000000008000e2ec        0x8 slipLogin.o
                                          0x0 (size before relaxing)
                0x000000008000e2ec                slip
 *fill*         0x000000008000e2f4        0xc 00
 COMMON         0x000000008000e300      0x660 slipStack.o
                                          0x0 (size before relaxing)
                0x000000008000e300                sp
                0x000000008000e320                sldb
 COMMON         0x000000008000e960        0xc ../../lib/libcjtmos.a(file.o)
                                          0x0 (size before relaxing)
                0x000000008000e960                stdout
                0x000000008000e964                stdin
                0x000000008000e968                stderr
 COMMON         0x000000008000e96c        0x4 ../../lib/libcjtmos.a(process.o)
                                          0x0 (size before relaxing)
                0x000000008000e96c                ___djgpp_exception_state_ptr
                0x000000008000e970                end = .
                0x000000008000e970                _end = .
                0x000000008000e970                appregionend = .
LOAD ../../lib/libcjtmos.a
OUTPUT(slip.bin binary)

.comment        0x0000000000000000      0x4d8
 .comment       0x0000000000000000       0x1f ../../libc/stlibc.o
 .comment       0x000000000000001f       0x1f slip.o
 .comment       0x000000000000003e       0x1f slipConfig.o
 .comment       0x000000000000005d       0x1f slipDev.o
 .comment       0x000000000000007c       0x1f slipLogin.o
 .comment       0x000000000000009b       0x1f slipMain.o
 .comment       0x00000000000000ba       0x1f slipService.o
 .comment       0x00000000000000d9       0x1f slipStack.o
 .comment       0x00000000000000f8       0x1f ../../lib/libcjtmos.a(communication.o)
 .comment       0x0000000000000117       0x1f ../../lib/libcjtmos.a(console.o)
 .comment       0x0000000000000136       0x1f ../../lib/libcjtmos.a(dpi.o)
 .comment       0x0000000000000155       0x1f ../../lib/libcjtmos.a(fclose.o)
 .comment       0x0000000000000174       0x1f ../../lib/libcjtmos.a(fflush.o)
 .comment       0x0000000000000193       0x1f ../../lib/libcjtmos.a(file.o)
 .comment       0x00000000000001b2       0x1f ../../lib/libcjtmos.a(filebuf.o)
 .comment       0x00000000000001d1       0x1f ../../lib/libcjtmos.a(filedir.o)
 .comment       0x00000000000001f0       0x1f ../../lib/libcjtmos.a(fopen.o)
 .comment       0x000000000000020f       0x1f ../../lib/libcjtmos.a(fseek.o)
 .comment       0x000000000000022e       0x1f ../../lib/libcjtmos.a(init.o)
 .comment       0x000000000000024d       0x1f ../../lib/libcjtmos.a(malloc.o)
 .comment       0x000000000000026c       0x1f ../../lib/libcjtmos.a(mallocMain.o)
 .comment       0x000000000000028b       0x1f ../../lib/libcjtmos.a(numbers.o)
 .comment       0x00000000000002aa       0x1f ../../lib/libcjtmos.a(printf.o)
 .comment       0x00000000000002c9       0x1f ../../lib/libcjtmos.a(process.o)
 .comment       0x00000000000002e8       0x1f ../../lib/libcjtmos.a(scall.o)
 .comment       0x0000000000000307       0x1f ../../lib/libcjtmos.a(sprintf.o)
 .comment       0x0000000000000326       0x1f ../../lib/libcjtmos.a(sscanf.o)
 .comment       0x0000000000000345       0x1f ../../lib/libcjtmos.a(strchr.o)
 .comment       0x0000000000000364       0x1f ../../lib/libcjtmos.a(string.o)
 .comment       0x0000000000000383       0x1f ../../lib/libcjtmos.a(strncat.o)
 .comment       0x00000000000003a2       0x1f ../../lib/libcjtmos.a(XXidentification.o)
 .comment       0x00000000000003c1       0x1f ../../lib/libcjtmos.a(atexit.o)
 .comment       0x00000000000003e0       0x1f ../../lib/libcjtmos.a(ctypefamily.o)
 .comment       0x00000000000003ff       0x1f ../../lib/libcjtmos.a(cvt.o)
 .comment       0x000000000000041e       0x1f ../../lib/libcjtmos.a(date.o)
 .comment       0x000000000000043d       0x1f ../../lib/libcjtmos.a(error.o)
 .comment       0x000000000000045c       0x1f ../../lib/libcjtmos.a(floatconv.o)
 .comment       0x000000000000047b       0x1f ../../lib/libcjtmos.a(fprintf.o)
 .comment       0x000000000000049a       0x1f ../../lib/libcjtmos.a(modf.o)
 .comment       0x00000000000004b9       0x1f ../../lib/libcjtmos.a(floor.o)

.note.GNU-stack
                0x0000000000000000        0x0
