
Allocating common symbols
Common symbol       size              file

jtmfs_structure     0x4               ./fs/jtmfs/jtmfs.o
ps2mouse_first_time
                    0x4               ./drivers/mouse/ps2mouse.o
vesainfo            0x4               ./init/vesa.o
kbstr               0x40              ./drivers/keyboard/keyb.o
stdout              0x4               init/start.o
mm                  0x14              ./mm/mm.o
kappDataSeg         0x4               ./core/chiplevel/gdtmanipulation.o
gusThread           0xc               ./drivers/gus/gus.o
default_ramdisk     0xc               ./drivers/ramdisk/ramdisk.o
vb                  0x4               ./init/vesa.o
ShellThread         0xc               ./init/system.o
vga_terminal        0x4               ./drivers/vga/vga.o
fdelay              0x24              init/start.o
search_walk         0x4               ./mm/paging.o
pit                 0x4               ./core/chiplevel/pit.o
lptport             0x80              ./drivers/lpt/lpt.o
MSTART              0x4               ./mm/mm.o
centralprocess      0x328             init/start.o
phMEND              0x4               ./mm/mm.o
Client              0x2c              ./drivers/slip/slipDev.o
intdb               0xa404            ./core/chiplevel/intdb.o
hdb                 0x4               ./drivers/hd/cache/hdCache.o
REND                0x4               ./mm/mm.o
slip                0x8               ./drivers/slip/slipLogin.o
gdtentsys           0x4               ./core/chiplevel/gdtmanipulation.o
ms                  0xc               ./mm/scanmem.o
devq                0x640             ./drivers/driver_remdevcall.o
IdleThread          0xc               ./core/chiplevel/IdleThread.o
lin_walk            0x4               ./mm/paging.o
comportR            0x70              ./drivers/serial/serial.o
wholestring         0x4               ./init/init.o
GUSMEM              0x4               ./drivers/gus/gus.o
Mode                0x18              ./drivers/vga/vga.o
fatsys              0x4               ./fs/jtmfs/jtmfat.o
MEND                0x4               ./mm/mm.o
devdb               0x4               ./drivers/driver_sys.o
stdin               0x4               init/start.o
hwdetThread         0xc               ./core/hwdet/hwdet.o
aud                 0x1c              ./drivers/audio/audio.o
systemStarted       0x4               ./init/system.o
pci                 0x4               ./drivers/pci/pci.o
thread_CPUspending  0x3e8             init/start.o
cmdpar              0x190             ./init/init.o
sb                  0x20              ./drivers/sb/sb.o
aldb                0x4               ./mm/mm.o
debugstr            0x300             ./fs/jtmfs/jtmfs.o
sbThread            0xc               ./drivers/sb/sb.o
flextmp             0x100             ./fs/jtmfs/flexFat.o
screens             0xac00            ./drivers/term/term.o
fle                 0x4               ./fs/jtmfs/flexFat.o
LoggerThread        0xc               ./core/chiplevel/logging.o
serialport          0x60              ./drivers/serial/serial.o
phMSTART            0x4               ./mm/mm.o
fdc                 0x28              ./drivers/floppy/fdc.o
dirdb               0x535c            ./fs/jtmfs/dirdb.o
audio               0x8               ./drivers/audio/audio.o
comportW            0x70              ./drivers/serial/serial.o
exception           0x1c              ./core/chiplevel/llexception.o
threadtmp           0x320             init/start.o
stderr              0x4               init/start.o
sp                  0x14              ./drivers/slip/slipStack.o
__str               0xff              ./fs/jtmfs/jtmfat.o
phREND              0x4               ./mm/mm.o
kappCodeSeg         0x4               ./core/chiplevel/gdtmanipulation.o
rtcstr              0x14              ./drivers/cmos/rtc.o
mouse               0x2b0             ./drivers/mouse/ps2mouse.o
bc                  0x8               ./drivers/driver_BlockCache.o
MouseThread         0xc               ./drivers/mouse/SerialMouse.o
thread_shell_pointer
                    0x3e8             init/start.o
jtmfsAccess         0x14              ./fs/jtmfs/jtmfsAccess.o
sldb                0x640             ./drivers/slip/slipStack.o
StatusLine          0xc               ./core/statusline/statusline.o
str_device          0xff              ./init/init.o
SerialThread        0xc               ./drivers/serial/serial.o
SystemLog           0x1c              ./core/chiplevel/logging.o
fddb                0x8               init/start.o
keys                0x8               init/start.o
glvar               0x59c             ./init/sysglvar.o
centralprocessThread
                    0xc               ./core/cp/centralprocessInit.o
bios_data           0x10              ./init/init.o

Memory Configuration

Name             Origin             Length             Attributes
*default*        0x0000000000000000 0xffffffffffffffff

Linker script and memory map

LOAD init/start.o
LOAD ./mm/mmBit.o
LOAD ./mm/scanmem.o
LOAD ./mm/mmEntry.o
LOAD ./mm/mm.o
LOAD ./mm/paging.o
LOAD ./mm/mmTest.o
LOAD ./mm/mmAlloc.o
LOAD ./drivers/driver_diskchange.o
LOAD ./drivers/driver_lock.o
LOAD ./drivers/driver_flush.o
LOAD ./drivers/driver_remdevcall.o
LOAD ./drivers/driver_api_devcall.o
LOAD ./drivers/driver_api.o
LOAD ./drivers/driver_rw.o
LOAD ./drivers/driver_init.o
LOAD ./drivers/driver_sys.o
LOAD ./drivers/driver_BlockCache.o
LOAD ./drivers/fardcall.o
LOAD ./drivers/partsup/partsup.o
LOAD ./drivers/keyboard/keyb.o
LOAD ./drivers/keyboard/scanasc.o
LOAD ./drivers/keyboard/keybISR.o
LOAD ./drivers/lpt/lpt.o
LOAD ./drivers/ega/ega.o
LOAD ./drivers/ega/ega_ansi.o
LOAD ./drivers/audio/audio.o
LOAD ./drivers/floppy/fdc_dev2.o
LOAD ./drivers/floppy/fdcCache.o
LOAD ./drivers/floppy/fdc.o
LOAD ./drivers/floppy/fdcser.o
LOAD ./drivers/floppy/fdc_dev.o
LOAD ./drivers/floppy/fdc_interrupt.o
LOAD ./drivers/slip/slipKernelMain.o
LOAD ./drivers/slip/slipDev.o
LOAD ./drivers/slip/slipLogin.o
LOAD ./drivers/slip/slipService.o
LOAD ./drivers/slip/slipConfig.o
LOAD ./drivers/slip/slipStack.o
LOAD ./drivers/slip/slip.o
LOAD ./drivers/term/term.o
LOAD ./drivers/null/null.o
LOAD ./drivers/mouse/SerialMouseDev.o
LOAD ./drivers/mouse/ps2mouse.o
LOAD ./drivers/mouse/SerialMouse.o
LOAD ./drivers/mouse/mouse.o
LOAD ./drivers/mouse/SerialMouse_interrupt.o
LOAD ./drivers/mouse/ps2mouse_interrupt.o
LOAD ./drivers/pci/pci.o
LOAD ./drivers/vmware/vmware.o
LOAD ./drivers/vga/sysvga.o
LOAD ./drivers/vga/vga.o
LOAD ./drivers/vga/sysgfx.o
LOAD ./drivers/alt/alt.o
LOAD ./drivers/serial/serial_dev.o
LOAD ./drivers/serial/serial.o
LOAD ./drivers/serial/serial_interrupt.o
LOAD ./drivers/gus/gus.o
LOAD ./drivers/gus/gus_interrupt.o
LOAD ./drivers/sb/sb_dev.o
LOAD ./drivers/sb/sb.o
LOAD ./drivers/sb/sb_interrupt.o
LOAD ./drivers/ramdisk/ramser.o
LOAD ./drivers/ramdisk/ramdisk.o
LOAD ./drivers/hd/hdDetect.o
LOAD ./drivers/hd/hdDev.o
LOAD ./drivers/hd/hdMisc.o
LOAD ./drivers/hd/hdBlockRW.o
LOAD ./drivers/hd/hdRW.o
LOAD ./drivers/hd/hdIRQ.o
LOAD ./drivers/hd/lowLBA.o
LOAD ./drivers/hd/lowCHS.o
LOAD ./drivers/hd/hdReset.o
LOAD ./drivers/hd/hdService.o
LOAD ./drivers/hd/chs.o
LOAD ./drivers/hd/hd.o
LOAD ./drivers/hd/hdInt.o
LOAD ./drivers/hd/cache/hdCacheEntry.o
LOAD ./drivers/hd/cache/hdCacheFlush.o
LOAD ./drivers/hd/cache/hdCache.o
LOAD ./drivers/hd/cache/hdCacheAccess.o
LOAD ./drivers/cmos/cmos.o
LOAD ./drivers/cmos/rtc.o
LOAD ./drivers/cmos/cmos_dev.o
LOAD ./drivers/tcp/tcp.o
LOAD ./drivers/tcp/ts.o
LOAD ./drivers/tcp/www_server.o
LOAD ./drivers/tcp/ConnectHost.o
LOAD ./drivers/tcp/PacketDump.o
LOAD ./drivers/tcp/rawpacket.o
LOAD ./drivers/tcp/SendPacket.o
LOAD ./drivers/tcp/tcpConfig.o
LOAD ./drivers/tcp/tcpDev.o
LOAD ./drivers/tcp/icmp.o
LOAD ./drivers/tcp/tcpMain.o
LOAD ./drivers/tcp/tcpService.o
LOAD ./drivers/tcp/ip.o
LOAD ./drivers/tcp/tcpchksum.o
LOAD ./drivers/tcp/socket.o
LOAD ./drivers/zero/zero.o
LOAD ./core/speaker/speaker.o
LOAD ./core/asm/aslib.o
LOAD ./core/dispadmin/dispadmin.o
LOAD ./core/statusline/statusline.o
LOAD ./core/cp/centralprocessInit.o
LOAD ./core/cp/exeidentificationmodule.o
LOAD ./core/cp/centralprocess.o
LOAD ./core/cp/reboot.o
LOAD ./core/cp/panic.o
LOAD ./core/cp/LaunchApp.o
LOAD ./core/cp/scheduler.o
LOAD ./core/cp/errors.o
LOAD ./core/cp/centralprocessMain.o
LOAD ./core/cp/gpf.o
LOAD ./core/speed/speed.o
LOAD ./core/random/random.o
LOAD ./core/fixal/fixal.o
LOAD ./core/dataproc/gets.o
LOAD ./core/dataproc/memcpy.o
LOAD ./core/dataproc/strchr.o
LOAD ./core/dataproc/floorl.o
LOAD ./core/dataproc/floatconv.o
LOAD ./core/dataproc/ctypefamily.o
LOAD ./core/dataproc/sprintf.o
LOAD ./core/dataproc/strtok_r.o
LOAD ./core/dataproc/modf.o
LOAD ./core/dataproc/printf.o
LOAD ./core/dataproc/strncat.o
LOAD ./core/dataproc/strcspn.o
LOAD ./core/dataproc/sscanf.o
LOAD ./core/dataproc/string.o
LOAD ./core/dataproc/floor.o
LOAD ./core/dataproc/strtok.o
LOAD ./core/dataproc/strdup.o
LOAD ./core/dataproc/strspn.o
LOAD ./core/dataproc/cvt.o
LOAD ./core/dataproc/hexdump.o
LOAD ./core/useradmin/useradmin.o
LOAD ./core/chiplevel/postcommands.o
LOAD ./core/chiplevel/pit.o
LOAD ./core/chiplevel/tss.o
LOAD ./core/chiplevel/llexception.o
LOAD ./core/chiplevel/gdtmanipulation.o
LOAD ./core/chiplevel/scs2.o
LOAD ./core/chiplevel/corruption.o
LOAD ./core/chiplevel/stack.o
LOAD ./core/chiplevel/lock.o
LOAD ./core/chiplevel/debug.o
LOAD ./core/chiplevel/intdb.o
LOAD ./core/chiplevel/intgdt.o
LOAD ./core/chiplevel/exception.o
LOAD ./core/chiplevel/delay.o
LOAD ./core/chiplevel/int.o
LOAD ./core/chiplevel/coprocessor_not_found.o
LOAD ./core/chiplevel/logging.o
LOAD ./core/chiplevel/ansiwin.o
LOAD ./core/chiplevel/io.o
LOAD ./core/chiplevel/msgbox.o
LOAD ./core/chiplevel/dma.o
LOAD ./core/chiplevel/scs.o
LOAD ./core/chiplevel/system_call.o
LOAD ./core/chiplevel/IdleThread.o
LOAD ./core/chiplevel/exec.o
LOAD ./core/chiplevel/dfunc.o
LOAD ./core/chiplevel/scs_devices.o
LOAD ./core/chiplevel/coprocessor.o
LOAD ./core/chiplevel/mkstack.o
LOAD ./core/chiplevel/scall_handler.o
LOAD ./core/chiplevel/llint.o
LOAD ./core/chiplevel/scall.o
LOAD ./core/chiplevel/launchapp.o
LOAD ./core/chiplevel/llexc.o
LOAD ./core/environment/envint.o
LOAD ./core/environment/env.o
LOAD ./core/threads/threads.o
LOAD ./core/threads/threads_db.o
LOAD ./core/threads/threadSwitch.o
LOAD ./core/hwdet/hwdet.o
LOAD ./sh/plasma_app.o
LOAD ./sh/debugapp.o
LOAD ./sh/lsapp.o
LOAD ./sh/getopt.o
LOAD ./sh/formatapp.o
LOAD ./sh/sh.o
LOAD ./sh/chdirapp.o
LOAD ./init/buffer.o
LOAD ./init/sysglvar.o
LOAD ./init/parse.o
LOAD ./init/sysapp.o
LOAD ./init/initsystem.o
LOAD ./init/keropt.o
LOAD ./init/vesa.o
LOAD ./init/init.o
LOAD ./init/errno.o
LOAD ./init/callapp.o
LOAD ./init/biosfunc.o
LOAD ./init/system.o
LOAD ./init/foo.o
LOAD ./init/test.o
LOAD ./init/sysmisc.o
LOAD ./init/xml/XML.o
LOAD ./utils/mst.o
LOAD ./fs/fgetsize.o
LOAD ./fs/feof.o
LOAD ./fs/link.o
LOAD ./fs/fopen.o
LOAD ./fs/_virtualfilesystem_devcall.o
LOAD ./fs/freopen.o
LOAD ./fs/fprintf.o
LOAD ./fs/ftell.o
LOAD ./fs/_close.o
LOAD ./fs/_write.o
LOAD ./fs/filedes.o
LOAD ./fs/_mkdir.o
LOAD ./fs/_lseek.o
LOAD ./fs/_fgetsize.o
LOAD ./fs/stat.o
LOAD ./fs/_opensocket.o
LOAD ./fs/_open.o
LOAD ./fs/_stat.o
LOAD ./fs/filebuf.o
LOAD ./fs/_read.o
LOAD ./fs/fseek.o
LOAD ./fs/api.o
LOAD ./fs/fflush.o
LOAD ./fs/fsetsize.o
LOAD ./fs/fclose.o
LOAD ./fs/file.o
LOAD ./fs/tmpnam.o
LOAD ./fs/filedir.o
LOAD ./fs/_chdir.o
LOAD ./fs/filedesbuf.o
LOAD ./fs/fat12/msdosio.o
LOAD ./fs/jtmfs/jtmfsPath.o
LOAD ./fs/jtmfs/fslast.o
LOAD ./fs/jtmfs/directfileaccess.o
LOAD ./fs/jtmfs/fname_translation.o
LOAD ./fs/jtmfs/isJTMFS.o
LOAD ./fs/jtmfs/jtmfs.o
LOAD ./fs/jtmfs/fsfind.o
LOAD ./fs/jtmfs/dirdbWalk.o
LOAD ./fs/jtmfs/flexCorruption.o
LOAD ./fs/jtmfs/fsdev.o
LOAD ./fs/jtmfs/dirdbFind.o
LOAD ./fs/jtmfs/mount.o
LOAD ./fs/jtmfs/createfat.o
LOAD ./fs/jtmfs/fsadd.o
LOAD ./fs/jtmfs/flexFat.o
LOAD ./fs/jtmfs/dirdbAccess.o
LOAD ./fs/jtmfs/format.o
LOAD ./fs/jtmfs/dirdbInformation.o
LOAD ./fs/jtmfs/WriteChain.o
LOAD ./fs/jtmfs/writeDir.o
LOAD ./fs/jtmfs/fsdos.o
LOAD ./fs/jtmfs/dirdb.o
LOAD ./fs/jtmfs/jtmfsAccessInit.o
LOAD ./fs/jtmfs/root.o
LOAD ./fs/jtmfs/fswalk.o
LOAD ./fs/jtmfs/jtmfsAccess.o
LOAD ./fs/jtmfs/fsaddblocks.o
LOAD ./fs/jtmfs/ReadChain.o
LOAD ./fs/jtmfs/jtmfat.o
LOAD ./fs/jtmfs/dir.o
LOAD ./fs/jtmfs/dirdbCorruption.o
                0x0000000000020000                . = 0x20000

.text           0x0000000000020000    0x437ba
 *(.text)
 .text          0x0000000000020000       0x44 init/start.o
                0x0000000000020000                _boot_up
 *fill*         0x0000000000020044        0xc 
 .text          0x0000000000020050      0x24e ./mm/mmBit.o
                0x0000000000020050                malloc_getamountfree
                0x00000000000200a0                malloc_getmemoryfree
                0x00000000000200f0                mmFindFreePages
                0x0000000000020160                mmSetRegion
                0x00000000000201e0                mmFreeRegion
                0x0000000000020210                mmFreeRegionAD
                0x0000000000020240                mmReserveRegion
                0x0000000000020270                mmReserveRegionAD
 *fill*         0x000000000002029e        0x2 
 .text          0x00000000000202a0      0x1aa ./mm/scanmem.o
                0x00000000000202a0                scanmem1
                0x0000000000020400                scanmem
                0x0000000000020440                GetRamAmount
 *fill*         0x000000000002044a        0x6 
 .text          0x0000000000020450      0x27e ./mm/mmEntry.o
                0x0000000000020450                mmRemoveEntry
                0x00000000000204b0                mmGiveMD
                0x00000000000204f0                mmGetNewEntry
                0x0000000000020550                mmNewEntry
                0x0000000000020580                mmFindFreeEntry
                0x00000000000205d0                mmDetermineOwner
                0x0000000000020620                GetChunkOwner
                0x0000000000020650                mmAddEntry
 *fill*         0x00000000000206ce        0x2 
 .text          0x00000000000206d0      0x52b ./mm/mm.o
                0x00000000000206d0                MMPANIC
                0x00000000000207a0                mm_Diagnostics
                0x0000000000020850                ShowPageMap
                0x00000000000208e0                mmInit
 *fill*         0x0000000000020bfb        0x5 
 .text          0x0000000000020c00      0x8a3 ./mm/paging.o
                0x0000000000020c00                pg_unmapmemory
                0x0000000000020c70                FindEmptyArea
                0x0000000000020d50                pg_mapmemory
                0x0000000000020df0                _pg_allocEx
                0x0000000000020f20                _pg_alloc
                0x0000000000020f50                GetKernelPageDirPTR
                0x0000000000020f60                GetKernelPageTablePTR
                0x0000000000020f70                Demonstrate
                0x0000000000020fa0                GenLinTable
                0x0000000000020fe0                GetPage
                0x0000000000021000                GetPage1
                0x0000000000021010                SetPage
                0x0000000000021060                SetPage1
                0x00000000000210b0                pg_enable
                0x00000000000210d0                pg_QuickMap
                0x0000000000021160                pg_init
                0x0000000000021420                PageDump
                0x0000000000021480                PageDumpNear
 *fill*         0x00000000000214a3        0xd 
 .text          0x00000000000214b0      0x1c0 ./mm/mmTest.o
                0x00000000000214b0                mmTest
 .text          0x0000000000021670      0x9e1 ./mm/mmAlloc.o
                0x0000000000021830                malloc_optimize
                0x0000000000021840                malloc_dumpchunkinfoEx
                0x0000000000021850                malloc_restfree
                0x0000000000021860                AffectProcessML
                0x0000000000021890                free1
                0x0000000000021970                mmPause
                0x0000000000021980                SetMemoryName
                0x0000000000021990                kfree
                0x00000000000219c0                malloc_freeprocmem
                0x0000000000021ad0                malloc_getsize
                0x0000000000021b80                ChangeChunkOwner
                0x0000000000021c70                _kmalloc
                0x0000000000021e00                kmalloc
                0x0000000000021e90                malloc1
                0x0000000000021fa0                procmalloc
                0x0000000000022030                _kfree
 *fill*         0x0000000000022051        0xf 
 .text          0x0000000000022060       0x25 ./drivers/driver_diskchange.o
                0x0000000000022060                diskchange
                0x0000000000022070                DiskChange
                0x0000000000022080                diskchangednr
 *fill*         0x0000000000022085        0xb 
 .text          0x0000000000022090       0xf2 ./drivers/driver_lock.o
                0x0000000000022090                driver_directAccessLockOn
                0x00000000000220e0                driver_directAccessLockOff
                0x00000000000220f0                driver_forceSetLock
                0x0000000000022110                driver_getLock
                0x0000000000022120                driver_lockOn
                0x0000000000022170                driver_lockOff
 *fill*         0x0000000000022182        0xe 
 .text          0x0000000000022190      0x209 ./drivers/driver_flush.o
                0x0000000000022190                driver_TriggerCacheFlush1
                0x00000000000221d0                driver_TriggerCacheFlush
                0x0000000000022210                FlushAll
                0x0000000000022220                _FlushCache
                0x0000000000022360                driver_FlushDrive
 *fill*         0x0000000000022399        0x7 
 .text          0x00000000000223a0      0x1c0 ./drivers/driver_remdevcall.o
                0x00000000000223a0                remoteDeviceCall
 .text          0x0000000000022560      0x1d5 ./drivers/driver_api_devcall.o
                0x0000000000022560                device_call
 *fill*         0x0000000000022735        0xb 
 .text          0x0000000000022740      0x2a7 ./drivers/driver_api.o
                0x0000000000022740                driver_getDebugVar
                0x0000000000022750                DumpDC
                0x00000000000227b0                IllegalPacket
                0x0000000000022810                getsize
                0x0000000000022870                getblocksize
                0x00000000000228e0                chdev
                0x0000000000022900                driver_unmountDNR
                0x0000000000022980                driver_mountDNR
                0x00000000000229d0                isDriveReady
                0x00000000000229e0                diskChange
 *fill*         0x00000000000229e7        0x9 
 .text          0x00000000000229f0      0x485 ./drivers/driver_rw.o
                0x00000000000229f0                readblock1
                0x0000000000022ab0                _readblock
                0x0000000000022b20                readblock
                0x0000000000022bd0                writeblock1
                0x0000000000022c70                _writeblock
                0x0000000000022ce0                writeblock
                0x0000000000022d90                writeblocks
                0x0000000000022e00                readblocks
                0x0000000000022e70                HDLED
 *fill*         0x0000000000022e75        0xb 
 .text          0x0000000000022e80        0x5 ./drivers/driver_init.o
                0x0000000000022e80                driver_init
 *fill*         0x0000000000022e85        0xb 
 .text          0x0000000000022e90      0x761 ./drivers/driver_sys.o
                0x0000000000022e90                driver_dummy
                0x0000000000022ea0                driver_getmaxdevices
                0x0000000000022eb0                driver_ping
                0x0000000000022f50                driver_ShutdownAllDevices
                0x0000000000022fd0                DevRemPID
                0x0000000000022fe0                driver_nr
                0x0000000000022ff0                driver_getAlias
                0x0000000000023010                isValidDevice
                0x0000000000023050                driver_register_new_deviceEx
                0x0000000000023130                driver_register_new_device
                0x0000000000023170                driver_sys_init
                0x0000000000023250                driver_getdeviceamount
                0x0000000000023260                driver_getdevice
                0x00000000000232a0                driver_getdevicenrbyname
                0x0000000000023360                device
                0x0000000000023370                getdevicenrbyname
                0x0000000000023380                driver_getdevicebyname
                0x0000000000023420                driver_getdevicename
                0x00000000000234c0                driver_TestDevice
                0x0000000000023530                driver_removedevice
                0x0000000000023580                driver_disableDAPIReadCache
                0x00000000000235c0                driver_enableDAPIReadCache
 *fill*         0x00000000000235f1        0xf 
 .text          0x0000000000023600        0x5 ./drivers/driver_BlockCache.o
                0x0000000000023600                cacheRB
 *fill*         0x0000000000023605        0xb 
 .text          0x0000000000023610       0x9f ./drivers/fardcall.o
                0x0000000000023610                fardcall
 *fill*         0x00000000000236af        0x1 
 .text          0x00000000000236b0      0x5bd ./drivers/partsup/partsup.o
                0x0000000000023a70                get_partition_table_by_name
                0x0000000000023ad0                partition_table_support_init
 *fill*         0x0000000000023c6d        0x3 
 .text          0x0000000000023c70      0x992 ./drivers/keyboard/keyb.o
                0x0000000000023c70                keyb_device_call
                0x0000000000023cc0                GetCTRL
                0x0000000000023cd0                GetALT
                0x0000000000023ce0                HandleStickKeys
                0x0000000000023d00                kb_outbuf
                0x0000000000023d20                kb_output_asc_buffer
                0x0000000000023dc0                incmark
                0x0000000000023dd0                getmark
                0x0000000000023de0                storemark
                0x0000000000023e00                getch1
                0x0000000000023e40                OutputKeyboard
                0x0000000000023e80                WriteKeyboard
                0x0000000000023ec0                translate_keyboard_situation
                0x0000000000023ed0                keyb_register_device
                0x0000000000023f20                kbwaitstatus
                0x0000000000023f90                kbwait
                0x0000000000023fe0                kbwrite
                0x0000000000024040                kbcmd
                0x0000000000024080                kbwaitdata
                0x00000000000240f0                kbread
                0x0000000000024160                setleds
                0x00000000000241f0                kb_hwinit
                0x0000000000024230                InitKeyboard
                0x00000000000243f0                getch
                0x0000000000024420                directgetch
                0x0000000000024480                RedirectKeyboardStream
                0x00000000000244c0                keyb_handler
                0x00000000000245f0                kbhit
 *fill*         0x0000000000024602        0xe 
 .text          0x0000000000024610     0x13c9 ./drivers/keyboard/scanasc.o
                0x0000000000024610                uppercase
                0x0000000000024660                scan_to_asc
 *fill*         0x00000000000259d9        0x7 
 .text          0x00000000000259e0       0xbb ./drivers/keyboard/keybISR.o
                0x0000000000025a38                keyb_ISR
 *fill*         0x0000000000025a9b        0x5 
 .text          0x0000000000025aa0      0x4a0 ./drivers/lpt/lpt.o
                0x0000000000025aa0                lpt_device_call
                0x0000000000025ae0                lpt_register_device
                0x0000000000025b40                lpt_sniff_port
                0x0000000000025ba0                lpt_hwinit
                0x0000000000025cd0                lpt_init
                0x0000000000025d10                lpt_input_value
                0x0000000000025d80                lpt_receive_byte
                0x0000000000025df0                lpt_transmit_byte
                0x0000000000025e90                lpt_get
                0x0000000000025ea0                lpt_put
 .text          0x0000000000025f40      0x1f3 ./drivers/ega/ega.o
                0x0000000000025f40                ega_device_call
                0x0000000000025f50                EGASafeMode
                0x0000000000025f90                EgaSetViewStart
                0x0000000000025fe0                EgaSelectWindow
                0x0000000000026020                ega_register_device
                0x0000000000026080                ega_init
                0x00000000000260a0                ega_locatetxtcursor
                0x0000000000026110                EgaConsoleInit
 *fill*         0x0000000000026133        0xd 
 .text          0x0000000000026140      0x34a ./drivers/ega/ega_ansi.o
                0x0000000000026140                EraseScrFromUPToY
                0x00000000000261e0                EraseScrFromDOWNToY
                0x0000000000026280                EraseToEndOfLine
                0x00000000000262c0                HandleAnsiCode
 *fill*         0x000000000002648a        0x6 
 .text          0x0000000000026490       0xc0 ./drivers/audio/audio.o
                0x0000000000026490                audio_dev_call
                0x00000000000264a0                SendAudio
                0x00000000000264e0                audio_init
 .text          0x0000000000026550      0x1fb ./drivers/floppy/fdc_dev2.o
                0x0000000000026550                floppy2_device_call
                0x00000000000266f0                floppy2_register_device
 *fill*         0x000000000002674b        0x5 
 .text          0x0000000000026750      0x24f ./drivers/floppy/fdcCache.o
                0x0000000000026780                giveBlock
                0x00000000000268c0                fdcFlushCacheEnt
                0x00000000000268e0                fdcFlushCache
                0x0000000000026900                fdcClearCache
                0x0000000000026910                fd_read_block
                0x0000000000026960                fd_write_block
 *fill*         0x000000000002699f        0x1 
 .text          0x00000000000269a0     0x144d ./drivers/floppy/fdc.o
                0x00000000000269a0                defaultDelays
                0x00000000000269e0                safeDelays
                0x0000000000026a20                FDC_DISKCHANGE
                0x0000000000026a70                fd_selectdrive
                0x0000000000026ab0                fd_sleep
                0x0000000000026b20                __fd_sleep
                0x0000000000026b90                _______fd_sleep
                0x0000000000026be0                fd_deinit
                0x0000000000026c30                fd_sendbyte
                0x0000000000026cc0                fd_getbyte
                0x0000000000026d60                fd_waitfdc
                0x0000000000026eb0                fdc_irqhandler6
                0x0000000000026f20                fd_int1c
                0x0000000000026fb0                fd_block2hts
                0x0000000000027010                fd_diskchange
                0x0000000000027020                fd_motoron
                0x00000000000270a0                fd_motoroff
                0x00000000000270f0                fd_recalibrate
                0x0000000000027150                fd_seek
                0x0000000000027200                fd_reset
                0x0000000000027340                fd_init
                0x00000000000273e0                fdc_init
                0x00000000000274d0                log_disk
                0x0000000000027590                fdc_rw
                0x00000000000278e0                fd_write_blocks
                0x00000000000279c0                fd_read_blocks
                0x0000000000027b80                format_track
 *fill*         0x0000000000027ded        0x3 
 .text          0x0000000000027df0      0x3b5 ./drivers/floppy/fdcser.o
                0x0000000000027df0                fdcDriverInit
                0x0000000000027ea0                fdcDeviceCall
                0x0000000000027f00                fdcServiceInit
                0x0000000000027f50                fdcServiceMain
                0x0000000000028110                fdcDriverMain
                0x00000000000281a0                fdcServiceEnd
 *fill*         0x00000000000281a5        0xb 
 .text          0x00000000000281b0      0x1eb ./drivers/floppy/fdc_dev.o
                0x00000000000281b0                floppy_device_call
                0x0000000000028340                floppy_register_device
 *fill*         0x000000000002839b        0x5 
 .text          0x00000000000283a0       0x95 ./drivers/floppy/fdc_interrupt.o
                0x0000000000028414                fdc_asmirqhandler6
 *fill*         0x0000000000028435        0xb 
 .text          0x0000000000028440       0x96 ./drivers/slip/slipKernelMain.o
                0x0000000000028440                SlipProcess
 *fill*         0x00000000000284d6        0xa 
 .text          0x00000000000284e0      0x23a ./drivers/slip/slipDev.o
                0x00000000000284e0                slip_register_device
                0x0000000000028520                slipDevCall
 *fill*         0x000000000002871a        0x6 
 .text          0x0000000000028720      0x3a4 ./drivers/slip/slipLogin.o
                0x0000000000028720                slipLogin
 *fill*         0x0000000000028ac4        0xc 
 .text          0x0000000000028ad0      0x170 ./drivers/slip/slipService.o
                0x0000000000028ad0                SlipRespondClient
                0x0000000000028b60                slipServiceMain
 .text          0x0000000000028c40       0x17 ./drivers/slip/slipConfig.o
                0x0000000000028c40                slipReadConfiguration
 *fill*         0x0000000000028c57        0x9 
 .text          0x0000000000028c60      0x754 ./drivers/slip/slipStack.o
                0x0000000000028c60                slipStackInit
                0x0000000000028cb0                SavePacket
                0x0000000000028d40                slipGetFreeRecEntry
                0x0000000000028d80                slipStack_ReceivePacket
                0x0000000000028dd0                slipGetFreeTraEntry
                0x0000000000028e10                slipStack_AddPacketToRecQueue
                0x0000000000028fc0                slipStack_SendPacket
                0x00000000000290e0                slipCleanUpQueues
                0x0000000000029160                slipRecNewPackets
                0x0000000000029200                slipGetTraPacket
                0x0000000000029240                slipTransmitPackets
                0x0000000000029340                slipStackCall
                0x0000000000029360                slipStack
 *fill*         0x00000000000293b4        0xc 
 .text          0x00000000000293c0      0x27e ./drivers/slip/slip.o
                0x00000000000293c0                slip_send_char
                0x00000000000293e0                slip_recv_char
                0x0000000000029420                slip_gets
                0x0000000000029490                slip_send_packet
                0x0000000000029580                slip_recv_packet
 *fill*         0x000000000002963e        0x2 
 .text          0x0000000000029640     0x2489 ./drivers/term/term.o
                0x0000000000029740                PanicOnNULL
                0x0000000000029790                GetCursorLocation
                0x00000000000297b0                FreePIDTerminals
                0x0000000000029810                OutTermKey
                0x0000000000029840                OutputTerminalKeyboardBuffer
                0x0000000000029860                InputTerminalKeyboardBuffer
                0x0000000000029880                FreeScreen
                0x0000000000029890                ReserveTerminal
                0x00000000000298d0                SetTerminalOwner
                0x00000000000298f0                GetTerminalOwner
                0x0000000000029910                AllocateScreenBuffer
                0x0000000000029960                Attention
                0x0000000000029990                attention
                0x00000000000299a0                stab
                0x00000000000299b0                GetVisibleTerminal
                0x00000000000299c0                SetVisibleTerminal
                0x00000000000299f0                SetTerminalLock
                0x0000000000029a20                GetTerminalLock
                0x0000000000029a30                wait_system_pause
                0x0000000000029a50                waitkey
                0x0000000000029a80                wherex
                0x0000000000029ab0                swherex
                0x0000000000029ad0                wherey
                0x0000000000029b00                swherey
                0x0000000000029b20                ScrRemoteCom
                0x0000000000029b90                scputch
                0x0000000000029bd0                AnsiCase
                0x0000000000029c00                gettextcolor
                0x0000000000029c30                gettextbackground
                0x0000000000029c60                textcolor
                0x0000000000029cb0                textbackground
                0x0000000000029d10                stextcolor
                0x0000000000029d30                stextbackground
                0x0000000000029d50                clearline
                0x0000000000029d80                copyline
                0x0000000000029e30                movesup
                0x0000000000029e90                movesdown
                0x0000000000029ef0                movecdown
                0x0000000000029f20                dropmark
                0x0000000000029fb0                scrpoke
                0x000000000002a010                scrpeek
                0x000000000002a030                SetTerminalScrolling
                0x000000000002a050                initscreenstructure
                0x000000000002a100                InitScreen
                0x000000000002a150                locatetxtcursor
                0x000000000002a210                sgotoxy
                0x000000000002a240                gotoxy
                0x000000000002a2b0                sgotox
                0x000000000002a2e0                gotox
                0x000000000002a370                sgotoy
                0x000000000002a3a0                gotoy
                0x000000000002a3f0                sclrscr
                0x000000000002a4b0                _clrscr
                0x000000000002a500                clrscr
                0x000000000002a570                NewTerminal
                0x000000000002a600                CreateTerminal
                0x000000000002a630                senter
                0x000000000002a6a0                movecright
                0x000000000002a700                writemark1
                0x000000000002a740                writemark
                0x000000000002a790                dwritetext
                0x000000000002a7e0                putch1
                0x000000000002a940                _putch
                0x000000000002a990                putch
                0x000000000002aa30                sputch
                0x000000000002aab0                sputs
                0x000000000002ab00                xwritetext
                0x000000000002ab40                VirtualTerminalInit
                0x000000000002aff0                xputs
                0x000000000002b040                print
                0x000000000002b0f0                printhex8
                0x000000000002b150                p8
                0x000000000002b180                printhex16
                0x000000000002b1d0                p16
                0x000000000002b220                printhex32
                0x000000000002b280                p32
                0x000000000002b2b0                printdechex32
                0x000000000002b320                pdh32
                0x000000000002b350                printhex32z
                0x000000000002b3b0                p32z
                0x000000000002b3e0                printdec32
                0x000000000002b440                pd32
                0x000000000002b470                printudec32
                0x000000000002b4d0                pud32
                0x000000000002b500                printdec32z
                0x000000000002b560                pdz32
                0x000000000002b590                sysmsg
                0x000000000002b640                swindow
                0x000000000002b6f0                window
                0x000000000002b7b0                defter
                0x000000000002b810                CursorState
                0x000000000002b830                SetHWCopy
                0x000000000002b850                BufToCopy
                0x000000000002b890                VisibleTerminals_SetHWCopy
                0x000000000002ba60                SOutCap
                0x000000000002baa0                SetTerCapture
 *fill*         0x000000000002bac9        0x7 
 .text          0x000000000002bad0       0xb2 ./drivers/null/null.o
                0x000000000002bad0                null_device_call
                0x000000000002bb10                null_register_device
                0x000000000002bb70                null_init
 *fill*         0x000000000002bb82        0xe 
 .text          0x000000000002bb90       0x91 ./drivers/mouse/SerialMouseDev.o
                0x000000000002bb90                SerialMouse_device_call
                0x000000000002bba0                SerialMouse_register_device
                0x000000000002bc00                SerialMouseInit
 *fill*         0x000000000002bc21        0xf 
 .text          0x000000000002bc30      0x8e1 ./drivers/mouse/ps2mouse.o
                0x000000000002bc30                ps2mouse_device_call
                0x000000000002bc40                ps2mouse_delay
                0x000000000002bc80                ps2mouse_kbwrite
                0x000000000002bd80                ps2mouse_kbcmd
                0x000000000002bdb0                ps2mouse_register_device
                0x000000000002be10                ps2mouse_writemouse
                0x000000000002be90                kbread1
                0x000000000002beb0                ps2mouse_drawgraphicalarrow
                0x000000000002bf30                ps2mouse_drawarrow
                0x000000000002c030                ps2mouse_irqhandler12
                0x000000000002c1b0                ps2mouse_setupirqs
                0x000000000002c1f0                ps2mouse_setrate
                0x000000000002c240                ps2mouse_setresolution
                0x000000000002c290                ps2mouse_hardwareinit
                0x000000000002c3c0                ps2mouse_modeChange
                0x000000000002c450                ps2mouse_init
 *fill*         0x000000000002c511        0xf 
 .text          0x000000000002c520      0x459 ./drivers/mouse/SerialMouse.o
                0x000000000002c520                init_MouseThread
                0x000000000002c580                SerialMouse_irqhandler4
                0x000000000002c590                SerialMouse_irqhandler3
                0x000000000002c5a0                LimitToRectArea
                0x000000000002c600                HandleSerMouse
                0x000000000002c8f0                MouseThreadProgram
                0x000000000002c910                SerialMouse_SetDivisor
                0x000000000002c930                SerialMouse_setupirqs
 *fill*         0x000000000002c979        0x7 
 .text          0x000000000002c980      0x16f ./drivers/mouse/mouse.o
                0x000000000002c980                mouse_isVisible
                0x000000000002c990                mouse_setframe
                0x000000000002c9c0                mouse_setposition
                0x000000000002c9f0                mouse_modeChange
                0x000000000002cab0                mouse_showmouse
                0x000000000002cac0                mouse_hidemouse
                0x000000000002cad0                mouse_hidecursor
                0x000000000002cae0                mouse_showcursor
 *fill*         0x000000000002caef        0x1 
 .text          0x000000000002caf0       0xb6 ./drivers/mouse/SerialMouse_interrupt.o
                0x000000000002cb68                SerialMouse_asmirqhandler4
                0x000000000002cb87                SerialMouse_asmirqhandler3
 *fill*         0x000000000002cba6        0xa 
 .text          0x000000000002cbb0       0xdb ./drivers/mouse/ps2mouse_interrupt.o
                0x000000000002cc28                ps2mouse_asmirqhandler12
 *fill*         0x000000000002cc8b        0x5 
 .text          0x000000000002cc90      0x2d8 ./drivers/pci/pci.o
                0x000000000002cc90                pci_device_call
                0x000000000002ccd0                pci_register_device
                0x000000000002cd30                pci_probe
                0x000000000002cf30                pci_init
 *fill*         0x000000000002cf68        0x8 
 .text          0x000000000002cf70       0x69 ./drivers/vmware/vmware.o
                0x000000000002cf70                InitVmwareDriver
 *fill*         0x000000000002cfd9        0x7 
 .text          0x000000000002cfe0      0x404 ./drivers/vga/sysvga.o
                0x000000000002cfe0                outvgareg
                0x000000000002d020                vga_640x480
                0x000000000002d0c0                setup_systemfont
                0x000000000002d2a0                setwplane
                0x000000000002d2e0                setrplane
                0x000000000002d320                sysvga_drawpalette
 *fill*         0x000000000002d3e4        0xc 
 .text          0x000000000002d3f0     0x1eda ./drivers/vga/vga.o
                0x000000000002d3f0                vga_device_call
                0x000000000002d400                vga_register_device
                0x000000000002d460                vga_init
                0x000000000002d480                ReadBIOSfont
                0x000000000002d490                SetMode
                0x000000000002d5e0                setpal
                0x000000000002d660                setpalette
                0x000000000002d690                setpalette4
                0x000000000002d730                setpalette16
                0x000000000002d7b0                setpalette256
                0x000000000002d810                SetVideoMode
                0x000000000002f230                setvmode
 *fill*         0x000000000002f2ca        0x6 
 .text          0x000000000002f2d0      0x284 ./drivers/vga/sysgfx.o
                0x000000000002f2d0                vga_xorpixel_m11
                0x000000000002f320                setpalettemap
                0x000000000002f390                setpaletteEx
                0x000000000002f430                setvgaplane
                0x000000000002f480                setvbank
                0x000000000002f4c0                clearvscreen
                0x000000000002f520                vga_clearscreen
                0x000000000002f530                vga_waitretrace
 *fill*         0x000000000002f554        0xc 
 .text          0x000000000002f560      0x162 ./drivers/alt/alt.o
                0x000000000002f560                altdev_device_call
                0x000000000002f640                altdev_register_device
                0x000000000002f6b0                altdev_init
 *fill*         0x000000000002f6c2        0xe 
 .text          0x000000000002f6d0       0x94 ./drivers/serial/serial_dev.o
                0x000000000002f6d0                serial_device_call
                0x000000000002f710                serial_register_device
 *fill*         0x000000000002f764        0xc 
 .text          0x000000000002f770      0x9f3 ./drivers/serial/serial.o
                0x000000000002f7b0                SerialThreadProgram
                0x000000000002f830                init_SerialThread
                0x000000000002f890                serial_biosdetect
                0x000000000002f8a0                GetSerialLineSpeed
                0x000000000002f8b0                init_serial_portEx
                0x000000000002f990                SetSerialPortSpeed
                0x000000000002f9e0                init_serial_port
                0x000000000002fa70                serialSetupIRQ
                0x000000000002faf0                serial_init1
                0x000000000002fbc0                serial_init
                0x000000000002fcc0                serial_wait_ctsend
                0x000000000002fd10                serial_print_out_status_on_error
                0x000000000002fdb0                serial_wait_transmitter
                0x000000000002fe30                serial_directput
                0x000000000002fe60                serial_put1
                0x000000000002fe90                serial_put2
                0x000000000002ff00                serial_get1
                0x000000000002ff40                serial_handlerirq
                0x000000000002ffb0                serial_irqhandler4
                0x000000000002ffd0                serial_irqhandler3
                0x000000000002fff0                serial_directget
                0x0000000000030010                serial_put
                0x0000000000030040                serial_get
                0x0000000000030070                serial_puts
                0x00000000000300d0                WaitSerialString
 *fill*         0x0000000000030163        0xd 
 .text          0x0000000000030170      0x12a ./drivers/serial/serial_interrupt.o
                0x00000000000301e4                serial_asmirqhandler4
                0x0000000000030279                serial_asmirqhandler3
 *fill*         0x000000000003029a        0x6 
 .text          0x00000000000302a0     0x1323 ./drivers/gus/gus.o
                0x00000000000302a0                gus_device_call
                0x00000000000302e0                init_gusThread
                0x0000000000030350                gus_irqhandler
                0x00000000000303a0                gus_register_device
                0x0000000000030400                gus_delay
                0x0000000000030430                gus_peek
                0x00000000000304d0                gus_poke
                0x0000000000030580                gusGetAudio
                0x00000000000305e0                gusMemoryInit
                0x0000000000030610                gus_write16
                0x0000000000030650                gus_write8
                0x0000000000030680                gus_setfreq
                0x0000000000030730                gus_setvolume
                0x00000000000307f0                gus_setbalance
                0x0000000000030890                gus_voicepos
                0x0000000000030960                gus_stopvoice
                0x0000000000030a80                gus_playvoice
                0x0000000000030cf0                gusPlayAudio
                0x0000000000030d60                gusSendMoreAudio
                0x0000000000030d80                gusStartLoop
                0x0000000000030dc0                gusProcess
                0x0000000000030e30                gus_reset
                0x0000000000031230                gus_testloc
                0x00000000000312d0                gus_detect
                0x0000000000031430                gus_findmem
                0x0000000000031480                gus_setupirq
                0x0000000000031500                gus_init
 *fill*         0x00000000000315c3        0xd 
 .text          0x00000000000315d0       0x93 ./drivers/gus/gus_interrupt.o
                0x0000000000031644                gus_ISR
 *fill*         0x0000000000031663        0xd 
 .text          0x0000000000031670       0x52 ./drivers/sb/sb_dev.o
                0x0000000000031670                sb_device_call
                0x0000000000031680                sb_register_device
 *fill*         0x00000000000316c2        0xe 
 .text          0x00000000000316d0     0x1153 ./drivers/sb/sb.o
                0x00000000000316d0                sb_getplayposition
                0x0000000000031710                sb_get_sample
                0x0000000000031830                sb_dma
                0x0000000000031910                sb_set_mixer_reg
                0x0000000000031960                sb_set_treble
                0x00000000000319a0                sb_set_bass
                0x00000000000319e0                sb_direct_output
                0x0000000000031a00                sb_set_master_volume
                0x0000000000031a20                sb_set_dsp_volume
                0x0000000000031a40                sb_set_fm_volume
                0x0000000000031a60                sb_set_cd_volume
                0x0000000000031a80                sb_set_line_volume
                0x0000000000031aa0                sb_get_mixer_reg
                0x0000000000031ae0                sb_detect_mixer
                0x0000000000031b50                sb_get_irq_nr
                0x0000000000031b70                sb_get_dma_nr
                0x0000000000031b90                sb_set_speaker_volume
                0x0000000000031bb0                sb_write_dsp
                0x0000000000031c40                sb_set_dma_blocklength
                0x0000000000031c90                sb_turn_speaker_on
                0x0000000000031cb0                sb_reset_mixer
                0x0000000000031d30                sb_turn_speaker_off
                0x0000000000031d50                sb_read_dsp
                0x0000000000031dd0                sb_get_version
                0x0000000000031e20                sb_configure
                0x0000000000031e50                sb_found
                0x0000000000031e70                sb_not_found
                0x0000000000031e80                init_sbThread
                0x0000000000031ef0                sb_reset
                0x0000000000031fb0                sb_set_frequency
                0x0000000000032030                sb_set_playback
                0x00000000000320b0                sb_play_sample
                0x0000000000032160                sb_init1
                0x0000000000032410                sb_init_
                0x00000000000324e0                sb_start_playing
                0x0000000000032520                sb_init
                0x00000000000326b0                moreData
                0x00000000000326d0                sbProcess
                0x00000000000327d0                sb_irqhandler
 *fill*         0x0000000000032823        0xd 
 .text          0x0000000000032830       0x93 ./drivers/sb/sb_interrupt.o
                0x00000000000328a4                sb_ISR
 *fill*         0x00000000000328c3        0xd 
 .text          0x00000000000328d0      0x325 ./drivers/ramdisk/ramser.o
                0x00000000000328d0                ramDriverInit
                0x0000000000032970                ramDeviceCall
                0x00000000000329d0                ramServiceInit
                0x0000000000032a20                ramServiceMain
                0x0000000000032b60                ramDriverMain
                0x0000000000032bf0                ramServiceEnd
 *fill*         0x0000000000032bf5        0xb 
 .text          0x0000000000032c00      0x65c ./drivers/ramdisk/ramdisk.o
                0x0000000000032c00                rd_register_device
                0x0000000000032c90                rd_createimage
                0x0000000000032d70                rd_createdefaultramdisk
                0x0000000000032e00                ramdisk_init
                0x0000000000032e20                rd_init
                0x0000000000032e40                rd_destroyimage
                0x0000000000032e90                rd_readblock
                0x0000000000032fa0                rd_writeblock
                0x0000000000033080                rd_getsize
                0x00000000000330f0                rdHandler
                0x00000000000331f0                rdDevCall
                0x0000000000033250                rd_getblocksize
 *fill*         0x000000000003325c        0x4 
 .text          0x0000000000033260      0x572 ./drivers/hd/hdDetect.o
                0x0000000000033260                RecalculateTotalBlocks
                0x0000000000033280                GetHDParam
                0x0000000000033400                hdTryDevice
                0x0000000000033460                StrFix
                0x00000000000334a0                hdDetermineUnits
                0x0000000000033540                hdPrimaryDetect
                0x0000000000033750                hdDetect
 *fill*         0x00000000000337d2        0xe 
 .text          0x00000000000337e0      0x287 ./drivers/hd/hdDev.o
                0x00000000000337e0                hdDeviceCall
                0x0000000000033a60                hdRegisterDevice
 *fill*         0x0000000000033a67        0x9 
 .text          0x0000000000033a70      0x331 ./drivers/hd/hdMisc.o
                0x0000000000033a70                hdChooseDrive
                0x0000000000033ab0                hdGetStatus
                0x0000000000033ad0                hdDelay
                0x0000000000033b00                hdReadError
                0x0000000000033b20                hdWaitIDEIRQ
                0x0000000000033b50                hdIsDriveBusy
                0x0000000000033b80                hdIsError
                0x0000000000033ba0                hdWait
                0x0000000000033c60                hdErrorCheck
                0x0000000000033d10                hdCommand
                0x0000000000033d30                hdRecalibrate
 *fill*         0x0000000000033da1        0xf 
 .text          0x0000000000033db0      0x166 ./drivers/hd/hdBlockRW.o
                0x0000000000033db0                hdBlockRW
 *fill*         0x0000000000033f16        0xa 
 .text          0x0000000000033f20       0xec ./drivers/hd/hdRW.o
                0x0000000000033f20                hdRW
 *fill*         0x000000000003400c        0x4 
 .text          0x0000000000034010       0xcd ./drivers/hd/hdIRQ.o
                0x0000000000034010                hdIRQ14
                0x0000000000034050                hdIRQ15
                0x0000000000034060                dhd_setuphdirqs
 *fill*         0x00000000000340dd        0x3 
 .text          0x00000000000340e0      0x40e ./drivers/hd/lowLBA.o
                0x00000000000340e0                HD_SetLBAMode
                0x0000000000034100                hdNewOrders_LBA
                0x00000000000341f0                hdSectorRW_LBA
 *fill*         0x00000000000344ee        0x2 
 .text          0x00000000000344f0      0x4b7 ./drivers/hd/lowCHS.o
                0x00000000000344f0                hdNewOrders
                0x00000000000345e0                hdSectorRW
 *fill*         0x00000000000349a7        0x9 
 .text          0x00000000000349b0       0xa5 ./drivers/hd/hdReset.o
                0x00000000000349b0                hdReset1
                0x0000000000034a10                hdReset
 *fill*         0x0000000000034a55        0xb 
 .text          0x0000000000034a60      0x4f5 ./drivers/hd/hdService.o
                0x0000000000034be0                hdDriverInit
                0x0000000000034c90                HD_DEMO
                0x0000000000034ce0                hdServiceInit
                0x0000000000034d40                hdServiceMain
                0x0000000000034ed0                hdDriverMain
                0x0000000000034f50                hdServiceEnd
 *fill*         0x0000000000034f55        0xb 
 .text          0x0000000000034f60       0x83 ./drivers/hd/chs.o
                0x0000000000034f60                isValidCHS
                0x0000000000034fb0                LinearToCHS
 *fill*         0x0000000000034fe3        0xd 
 .text          0x0000000000034ff0      0x1e3 ./drivers/hd/hd.o
                0x0000000000034ff0                hdTestDrive
                0x0000000000035080                hd_init
 *fill*         0x00000000000351d3        0xd 
 .text          0x00000000000351e0       0xc8 ./drivers/hd/hdInt.o
                0x00000000000351e0                hdLowIRQ14
                0x0000000000035245                hdLowIRQ15
 *fill*         0x00000000000352a8        0x8 
 .text          0x00000000000352b0      0x183 ./drivers/hd/cache/hdCacheEntry.o
                0x00000000000352b0                hdWipeCache
                0x00000000000352f0                hdArrangeMoreFreeEntries
                0x0000000000035330                hdArrangeFreeEntry
                0x00000000000353c0                hdFindTrackFromCache
 *fill*         0x0000000000035433        0xd 
 .text          0x0000000000035440      0x229 ./drivers/hd/cache/hdCacheFlush.o
                0x0000000000035440                hdFlushWriteBack
 *fill*         0x0000000000035669        0x7 
 .text          0x0000000000035670      0x19f ./drivers/hd/cache/hdCache.o
                0x0000000000035670                hdCacheInit
 *fill*         0x000000000003580f        0x1 
 .text          0x0000000000035810      0x2f9 ./drivers/hd/cache/hdCacheAccess.o
                0x0000000000035810                hdCacheCheckBuffers
                0x0000000000035820                hdCacheCheckBuffers1
                0x0000000000035830                hdCacheShowInfo
                0x0000000000035840                hdLoadNewTrack
                0x0000000000035910                hdCacheAccess
                0x0000000000035960                hdCacheRW
 *fill*         0x0000000000035b09        0x7 
 .text          0x0000000000035b10       0xb4 ./drivers/cmos/cmos.o
                0x0000000000035b10                cmos_read
                0x0000000000035b50                cmos_batterycheck
                0x0000000000035b80                cmos_init
 *fill*         0x0000000000035bc4        0xc 
 .text          0x0000000000035bd0      0x439 ./drivers/cmos/rtc.o
                0x0000000000035bd0                rtc_readreg
                0x0000000000035c00                rtc_writereg
                0x0000000000035c40                rtc_getsecond
                0x0000000000035c70                rtc_getminute
                0x0000000000035ca0                rtc_gethour
                0x0000000000035cd0                rtc_getday
                0x0000000000035d00                rtc_getmonth
                0x0000000000035d30                rtc_getyear
                0x0000000000035d60                rtc_busyWait
                0x0000000000035dc0                rtc_getdate
                0x0000000000035f50                rtc_getseconds
                0x0000000000036000                GetSeconds
 *fill*         0x0000000000036009        0x7 
 .text          0x0000000000036010       0x64 ./drivers/cmos/cmos_dev.o
                0x0000000000036010                cmos_device_call
                0x0000000000036020                cmos_register_device
 *fill*         0x0000000000036074        0xc 
 .text          0x0000000000036080      0x108 ./drivers/tcp/tcp.o
                0x0000000000036080                htons
                0x00000000000360a0                TCPPacketChecksumMeasurement
                0x00000000000360c0                MakeTCPPacket
 *fill*         0x0000000000036188        0x8 
 .text          0x0000000000036190      0xe1f ./drivers/tcp/ts.o
                0x00000000000361c0                ntohl
                0x00000000000361d0                NETDNR
                0x0000000000036200                SocketEngineHandleOutgoingSocket
                0x0000000000036600                SocketEngineHandleIncomingSocket
                0x0000000000036bb0                SocketEngine
                0x0000000000036c30                serviceIncomingPacket
                0x0000000000036d40                IncomingTcpPacket
                0x0000000000036e20                PacketReceived
                0x0000000000036f40                NetStackInit
 *fill*         0x0000000000036faf        0x1 
 .text          0x0000000000036fb0      0x132 ./drivers/tcp/www_server.o
                0x0000000000036fb0                compare
                0x0000000000037020                GetDoc
                0x00000000000370d0                www_server
 *fill*         0x00000000000370e2        0xe 
 .text          0x00000000000370f0      0x109 ./drivers/tcp/ConnectHost.o
                0x00000000000370f0                ConnectHost
 *fill*         0x00000000000371f9        0x7 
 .text          0x0000000000037200      0x2e0 ./drivers/tcp/PacketDump.o
                0x0000000000037200                conv16
                0x0000000000037220                ShowIPPacket
                0x0000000000037320                ShowTCPPacket
                0x00000000000374b0                PacketDump
 .text          0x00000000000374e0       0x96 ./drivers/tcp/rawpacket.o
                0x00000000000374e0                TransmitRawPacket
                0x0000000000037530                ReceiveRawPacket
 *fill*         0x0000000000037576        0xa 
 .text          0x0000000000037580      0x10b ./drivers/tcp/SendPacket.o
                0x0000000000037580                SendPacket
 *fill*         0x000000000003768b        0x5 
 .text          0x0000000000037690        0x5 ./drivers/tcp/tcpConfig.o
                0x0000000000037690                tcpReadConfiguration
 *fill*         0x0000000000037695        0xb 
 .text          0x00000000000376a0      0x12e ./drivers/tcp/tcpDev.o
                0x00000000000376a0                tcp_register_device
                0x00000000000376e0                tcpDevCall
 *fill*         0x00000000000377ce        0x2 
 .text          0x00000000000377d0       0xa8 ./drivers/tcp/icmp.o
                0x00000000000377d0                icmp_checksum
                0x0000000000037830                GenICMPEchoReply
 *fill*         0x0000000000037878        0x8 
 .text          0x0000000000037880      0x20b ./drivers/tcp/tcpMain.o
                0x0000000000037880                TcpProcess
 *fill*         0x0000000000037a8b        0x5 
 .text          0x0000000000037a90      0x127 ./drivers/tcp/tcpService.o
                0x0000000000037a90                tcpServiceRespondClient
                0x0000000000037b20                tcpDeviceCallProbe
 *fill*         0x0000000000037bb7        0x9 
 .text          0x0000000000037bc0      0x15b ./drivers/tcp/ip.o
                0x0000000000037bc0                IPAD
                0x0000000000037c00                GetLocalHostIP
                0x0000000000037c40                ip_chksum16
                0x0000000000037c80                IPPacketChecksumMeasurement
                0x0000000000037cc0                MakeIPPacket
 *fill*         0x0000000000037d1b        0x5 
 .text          0x0000000000037d20      0x1c1 ./drivers/tcp/tcpchksum.o
                0x0000000000037d20                CusAdd
                0x0000000000037d50                tcpchksum
 *fill*         0x0000000000037ee1        0xf 
 .text          0x0000000000037ef0      0x6c9 ./drivers/tcp/socket.o
                0x0000000000037ef0                ReadOutgoingSocketStream
                0x0000000000037f40                ReadIncomingSocketStream
                0x0000000000037f50                WriteIncomingSocketStream
                0x0000000000037f90                WriteOutgoingSocketStream
                0x0000000000037fe0                EjectIncomingPacket
                0x0000000000038020                StoreIncomingPacket
                0x00000000000380a0                CloseSocketNR
                0x00000000000380f0                SocketLookFor
                0x00000000000382f0                GetFreeSocket
                0x0000000000038380                OpenIncomingConnection
                0x0000000000038400                FreeSocket
                0x0000000000038410                AllocatePort
                0x0000000000038430                FreePort
                0x0000000000038450                GetFreePort
                0x0000000000038480                SocketInit
 *fill*         0x00000000000385b9        0x7 
 .text          0x00000000000385c0       0xb2 ./drivers/zero/zero.o
                0x00000000000385c0                zero_device_call
                0x0000000000038600                zero_register_device
                0x0000000000038660                zero_init
 *fill*         0x0000000000038672        0xe 
 .text          0x0000000000038680       0xad ./core/speaker/speaker.o
                0x0000000000038680                sound
 *fill*         0x000000000003872d        0x3 
 .text          0x0000000000038730      0x2ff ./core/asm/aslib.o
                0x0000000000038730                tss_goto
                0x000000000003873f                TSSJMP
                0x0000000000038753                GETESP
                0x0000000000038756                GETSS
                0x000000000003875c                GETCS
                0x0000000000038762                GETDS
                0x0000000000038768                GETES
                0x000000000003876e                GETFS
                0x0000000000038774                GETGS
                0x000000000003877a                GETCR0
                0x000000000003877e                GETCR2
                0x0000000000038782                GETCR3
                0x0000000000038786                SETCR3
                0x0000000000038793                SETCR0
                0x00000000000387a0                TripleFault
                0x00000000000387c0                STORETR
                0x00000000000387da                LOADTR
                0x00000000000387e7                get_tr
                0x00000000000387f7                NESTEDTASK
                0x0000000000038817                CLEARNT
                0x0000000000038837                asm_inc
                0x0000000000038851                blinker
                0x0000000000038867                nullinterrupt
                0x000000000003886a                nullinterrupt2
                0x0000000000038874                waitpesc
                0x0000000000038881                setupidt
                0x000000000003888f                GET_EFLAGS
                0x0000000000038892                GetCR3
                0x0000000000038896                GET_LDT
                0x0000000000038911                GETGDTOFFS
                0x000000000003895f                GETIDTOFFS
                0x000000000003896d                GIMMIE_CS
                0x0000000000038976                GIMMIE_DS
                0x000000000003897f                GIMMIE_ES
                0x0000000000038988                GIMMIE_FS
                0x0000000000038991                GIMMIE_GS
                0x000000000003899a                GIMMIE_SS
                0x00000000000389a3                SETUPGDT
                0x00000000000389d9                SETUPLDT
                0x0000000000038a04                genint
                0x0000000000038a15                false_jump
                0x0000000000038a1d                TaskSwitched
                0x0000000000038a2a                Halt
                0x0000000000038a2c                vmsleep
 *fill*         0x0000000000038a2f        0x1 
 .text          0x0000000000038a30       0x55 ./core/dispadmin/dispadmin.o
                0x0000000000038a30                dispadmin_reportmodechange
                0x0000000000038a40                dispadmin_getcurrentmode
                0x0000000000038a50                dispadmin_getstr
                0x0000000000038a60                dispadmin_xorpixel_m11
                0x0000000000038a70                dispadmin_xorpixel
 *fill*         0x0000000000038a85        0xb 
 .text          0x0000000000038a90      0x227 ./core/statusline/statusline.o
                0x0000000000038a90                statusline_thread
                0x0000000000038c50                start_statusline
 *fill*         0x0000000000038cb7        0x9 
 .text          0x0000000000038cc0       0x55 ./core/cp/centralprocessInit.o
                0x0000000000038cc0                centralprocessInit
 *fill*         0x0000000000038d15        0xb 
 .text          0x0000000000038d20      0x31f ./core/cp/exeidentificationmodule.o
                0x0000000000038d20                getExeMemReq
                0x0000000000038ef0                isExeBinary
 *fill*         0x000000000003903f        0x1 
 .text          0x0000000000039040      0x8b7 ./core/cp/centralprocess.o
                0x0000000000039170                centralprocessExplainError
                0x00000000000391e0                trap1
                0x00000000000391f0                centralprocess_exec
                0x0000000000039260                centralprocessExecEx
                0x00000000000392d0                centralprocess_wait_moment
                0x00000000000392f0                centralprocess_loadEXE
                0x00000000000396e0                centralprocess_createproc
                0x00000000000397e0                centralprocess_job
                0x0000000000039810                centralprocess_runexe
                0x0000000000039890                centralprocess_runexe1
                0x00000000000398b0                centralprocess_HelpPage
 *fill*         0x00000000000398f7        0x9 
 .text          0x0000000000039900      0x199 ./core/cp/reboot.o
                0x0000000000039900                system_reset1
                0x0000000000039970                system_reset
                0x0000000000039a90                SystemReboot
 *fill*         0x0000000000039a99        0x7 
 .text          0x0000000000039aa0      0x184 ./core/cp/panic.o
                0x0000000000039aa0                IRQStatusCritical
                0x0000000000039ad0                FATALERROR
 *fill*         0x0000000000039c24        0xc 
 .text          0x0000000000039c30      0x3de ./core/cp/LaunchApp.o
                0x0000000000039c30                Indication
                0x0000000000039c40                AdaptAppPages
                0x0000000000039ca0                LaunchAppEx
                0x0000000000039fd0                LaunchApp
 *fill*         0x000000000003a00e        0x2 
 .text          0x000000000003a010       0xe6 ./core/cp/scheduler.o
                0x000000000003a010                _idle_moment
                0x000000000003a030                MapApplicationMemory
                0x000000000003a090                LLSchedule
                0x000000000003a0d0                TaskPitHandler
 *fill*         0x000000000003a0f6        0xa 
 .text          0x000000000003a100       0x6c ./core/cp/errors.o
                0x000000000003a100                stack_violation
 *fill*         0x000000000003a16c        0x4 
 .text          0x000000000003a170      0x3e3 ./core/cp/centralprocessMain.o
                0x000000000003a170                centralprocess_run
                0x000000000003a520                centralprocess_init
 *fill*         0x000000000003a553        0xd 
 .text          0x000000000003a560      0x689 ./core/cp/gpf.o
                0x000000000003a560                Disassemble
                0x000000000003a5a0                ESCLOCK
                0x000000000003a5e0                STACKWALK
                0x000000000003a640                STACKDUMP
                0x000000000003a770                PRGDUMP
                0x000000000003a840                AnalyzeFault
                0x000000000003a8e0                tss_dump
                0x000000000003a9f0                FATALEXCEPTION
                0x000000000003ab50                PROCESSINFO
 *fill*         0x000000000003abe9        0x7 
 .text          0x000000000003abf0        0x7 ./core/speed/speed.o
                0x000000000003abf0                determine_cpu_speed
 *fill*         0x000000000003abf7        0x9 
 .text          0x000000000003ac00      0x145 ./core/random/random.o
                0x000000000003ac00                srandom
                0x000000000003ac10                _rand
                0x000000000003ac40                rand
                0x000000000003ad30                random
                0x000000000003ad40                srand
 *fill*         0x000000000003ad45        0xb 
 .text          0x000000000003ad50      0x195 ./core/fixal/fixal.o
                0x000000000003ad50                fixalChangeChunkOwner
                0x000000000003ad60                fixalFree
                0x000000000003ad90                fixalCheck
                0x000000000003ae20                fixalReallocateOnCorruption
                0x000000000003aeb0                fixal1
 *fill*         0x000000000003aee5        0xb 
 .text          0x000000000003aef0       0xfc ./core/dataproc/gets.o
                0x000000000003aef0                gets
 *fill*         0x000000000003afec        0x4 
 .text          0x000000000003aff0      0x27b ./core/dataproc/memcpy.o
                0x000000000003b010                illegal
                0x000000000003b040                dmemcpy
                0x000000000003b120                xmemcpy
                0x000000000003b160                dmemset
                0x000000000003b240                xmemset
 *fill*         0x000000000003b26b        0x5 
 .text          0x000000000003b270       0xd5 ./core/dataproc/strchr.o
                0x000000000003b270                strchr
 *fill*         0x000000000003b345        0xb 
 .text          0x000000000003b350       0x31 ./core/dataproc/floorl.o
                0x000000000003b350                floorl
 *fill*         0x000000000003b381        0xf 
 .text          0x000000000003b390     0x35b6 ./core/dataproc/floatconv.o
                0x000000000003c0f0                _IO_strtod
                0x000000000003d2b0                _IO_dtoa
 *fill*         0x000000000003e946        0xa 
 .text          0x000000000003e950      0x2d7 ./core/dataproc/ctypefamily.o
                0x000000000003e950                tolower
                0x000000000003e9a0                toupper
                0x000000000003e9f0                isalpha
                0x000000000003ea50                isalnum
                0x000000000003ea60                isdigit
                0x000000000003eac0                iscntrl
                0x000000000003ead0                ispunct
                0x000000000003eae0                isxdigit
                0x000000000003eb40                isspace
                0x000000000003eb50                islower
                0x000000000003ebb0                isupper
                0x000000000003ec10                isprint
                0x000000000003ec20                isgraph
 *fill*         0x000000000003ec27        0x9 
 .text          0x000000000003ec30      0x423 ./core/dataproc/sprintf.o
                0x000000000003ec30                svprintf
                0x000000000003ee00                sprintf
                0x000000000003ee30                _vsprintf
 *fill*         0x000000000003f053        0xd 
 .text          0x000000000003f060       0x84 ./core/dataproc/strtok_r.o
                0x000000000003f060                __strtok_r
 *fill*         0x000000000003f0e4        0xc 
 .text          0x000000000003f0f0       0x2f ./core/dataproc/modf.o
                0x000000000003f0f0                modf
 *fill*         0x000000000003f11f        0x1 
 .text          0x000000000003f120      0x16f ./core/dataproc/printf.o
                0x000000000003f120                vprintf
                0x000000000003f270                printf
 *fill*         0x000000000003f28f        0x1 
 .text          0x000000000003f290       0xc3 ./core/dataproc/strncat.o
                0x000000000003f290                strncat
 *fill*         0x000000000003f353        0xd 
 .text          0x000000000003f360       0x3c ./core/dataproc/strcspn.o
                0x000000000003f360                strcspn
 *fill*         0x000000000003f39c        0x4 
 .text          0x000000000003f3a0      0x317 ./core/dataproc/sscanf.o
                0x000000000003f3a0                svscanf
                0x000000000003f690                sscanf
 *fill*         0x000000000003f6b7        0x9 
 .text          0x000000000003f6c0     0x13cb ./core/dataproc/string.o
                0x000000000003f6c0                GetRunningNumber
                0x000000000003f6d0                sptstr
                0x000000000003f7a0                strlen
                0x000000000003f7d0                strcpy
                0x000000000003f810                strcmp
                0x000000000003f860                strcat
                0x000000000003f8a0                str2int
                0x000000000003f900                dec2int
                0x000000000003f910                shex16
                0x000000000003f9d0                shex32
                0x000000000003fa60                shex32z
                0x000000000003fb10                shex8
                0x000000000003fb50                sdec32z
                0x000000000003fcd0                _sdec32
                0x00000000000400f0                sdec32
                0x0000000000040130                sudec32
                0x0000000000040140                isValidString
                0x0000000000040170                CountWords
                0x00000000000401f0                strcpyarg
                0x00000000000402c0                asc2vt220
                0x00000000000402f0                vt2202asc
                0x0000000000040300                hexchar2int
                0x0000000000040330                hex2int
                0x0000000000040410                strncmp
                0x0000000000040460                strstr
                0x0000000000040510                StretchPrint
                0x00000000000405a0                strncpy
                0x0000000000040680                readStringEx
                0x0000000000040720                seekTowardEnd
                0x0000000000040780                skipSpaces
                0x00000000000407a0                atof
                0x00000000000407d0                stringfloat
                0x00000000000407e0                printfloat
                0x0000000000040800                strtod
                0x0000000000040830                StringCheck
                0x0000000000040880                sdouble
                0x0000000000040a50                pdouble
 *fill*         0x0000000000040a8b        0x5 
 .text          0x0000000000040a90       0x31 ./core/dataproc/floor.o
                0x0000000000040a90                floor
 *fill*         0x0000000000040ac1        0xf 
 .text          0x0000000000040ad0       0x96 ./core/dataproc/strtok.o
                0x0000000000040ad0                strtok
 *fill*         0x0000000000040b66        0xa 
 .text          0x0000000000040b70       0x58 ./core/dataproc/strdup.o
                0x0000000000040b70                strdup
 *fill*         0x0000000000040bc8        0x8 
 .text          0x0000000000040bd0       0x3c ./core/dataproc/strspn.o
                0x0000000000040bd0                strspn
 *fill*         0x0000000000040c0c        0x4 
 .text          0x0000000000040c10      0x33b ./core/dataproc/cvt.o
                0x0000000000040f10                ecvt
                0x0000000000040f30                fcvt
 *fill*         0x0000000000040f4b        0x5 
 .text          0x0000000000040f50      0x101 ./core/dataproc/hexdump.o
                0x0000000000040f50                hexdump
 *fill*         0x0000000000041051        0xf 
 .text          0x0000000000041060       0x40 ./core/useradmin/useradmin.o
                0x0000000000041060                GetMachineName
                0x0000000000041080                GetCurrentUser
 .text          0x00000000000410a0      0x189 ./core/chiplevel/postcommands.o
                0x00000000000410a0                post_exist
                0x0000000000041130                post_findfirst
                0x00000000000411d0                post_findnext
 *fill*         0x0000000000041229        0x7 
 .text          0x0000000000041230      0x403 ./core/chiplevel/pit.o
                0x0000000000041230                runPitHandlers
                0x0000000000041280                initPitMeasure
                0x0000000000041320                init_pit
                0x00000000000413e0                InitTimer
                0x0000000000041430                MilSleep
                0x0000000000041480                Sleep
                0x0000000000041490                pit_getchannel
                0x00000000000414e0                pit_handler
                0x0000000000041550                init_counters
                0x0000000000041580                addPitHandler
                0x0000000000041600                removePitHandler
 *fill*         0x0000000000041633        0xd 
 .text          0x0000000000041640      0x968 ./core/chiplevel/tss.o
                0x0000000000041640                SetTSSDESBusyBit
                0x0000000000041670                unbusyTSS
                0x00000000000416f0                tssNextThread
                0x0000000000041700                SetTaskGate
                0x0000000000041750                Bingo1
                0x0000000000041790                Bingo
                0x00000000000417f0                TSSJump
                0x0000000000041810                SetSD
                0x0000000000041880                NewTSSEx
                0x0000000000041a00                NewTSS
                0x0000000000041a40                SetupTSSExceptionHandler
                0x0000000000041e40                InitTSS
                0x0000000000041f70                DumpTSS
 *fill*         0x0000000000041fa8        0x8 
 .text          0x0000000000041fb0      0x632 ./core/chiplevel/llexception.o
                0x0000000000041fb0                SafeExcReport
                0x0000000000042100                llexception_0
                0x0000000000042120                llexception_1
                0x0000000000042140                llexception_2
                0x0000000000042160                llexception_3
                0x0000000000042180                llexception_4
                0x00000000000421a0                llexception_5
                0x00000000000421c0                llexception_6
                0x00000000000421e0                llexception_7
                0x0000000000042200                llexception_8
                0x0000000000042220                llexception_9
                0x0000000000042240                llexception_10
                0x0000000000042260                llexception_11
                0x0000000000042280                llexception_12
                0x00000000000422a0                llexception_13
                0x00000000000422c0                llexception_14
                0x0000000000042300                llexception_15
                0x0000000000042320                llexception_16
                0x0000000000042340                setup_llexception_handlers
 *fill*         0x00000000000425e2        0xe 
 .text          0x00000000000425f0      0x31d ./core/chiplevel/gdtmanipulation.o
                0x00000000000425f0                FreeGDTEntry
                0x0000000000042620                gdt_NewEntry
                0x00000000000426b0                SetCallGate
                0x0000000000042720                SetCDEntryEx
                0x00000000000427a0                SetCDEntry
                0x0000000000042830                NewCDSegment
                0x00000000000428a0                InitGDTEntryAllocationSystem
 *fill*         0x000000000004290d        0x3 
 .text          0x0000000000042910      0x1a7 ./core/chiplevel/scs2.o
                0x0000000000042910                scall_setsize
                0x0000000000042920                scall_fexist1
                0x00000000000429a0                scall_getfilesize
                0x0000000000042a00                scall_isdriveready
                0x0000000000042a10                scall_creat1
                0x0000000000042a30                scall_unlink1
                0x0000000000042a50                scall_read1
                0x0000000000042a80                scall_write1
                0x0000000000042ab0                scall_getfiledatablock
 *fill*         0x0000000000042ab7        0x9 
 .text          0x0000000000042ac0       0x40 ./core/chiplevel/corruption.o
                0x0000000000042ac0                SetCorruptionCheck
                0x0000000000042ad0                GetCorruptionCheck
 .text          0x0000000000042b00       0x44 ./core/chiplevel/stack.o
                0x0000000000042b00                RenderStack
 *fill*         0x0000000000042b44        0xc 
 .text          0x0000000000042b50       0x9c ./core/chiplevel/lock.o
                0x0000000000042b50                Lock
                0x0000000000042bd0                Unlock
 *fill*         0x0000000000042bec        0x4 
 .text          0x0000000000042bf0       0xeb ./core/chiplevel/debug.o
                0x0000000000042bf0                doch
                0x0000000000042c50                ReportMessage
 *fill*         0x0000000000042cdb        0x5 
 .text          0x0000000000042ce0      0x104 ./core/chiplevel/intdb.o
                0x0000000000042ce0                initInterruptDB
                0x0000000000042d10                newHandlerEntryID
                0x0000000000042d60                addInterruptHandler
 *fill*         0x0000000000042de4        0xc 
 .text          0x0000000000042df0       0xb6 ./core/chiplevel/intgdt.o
                0x0000000000042df0                randomscreen
                0x0000000000042e10                OnAppThread
                0x0000000000042e30                update_gdt_for_appthread
 *fill*         0x0000000000042ea6        0xa 
 .text          0x0000000000042eb0      0x5c2 ./core/chiplevel/exception.o
                0x0000000000042eb0                exception_0
                0x0000000000042ed0                exception_1
                0x0000000000042f00                exception_2
                0x0000000000042f30                exception_3
                0x0000000000042f60                exception_4
                0x0000000000042f90                exception_5
                0x0000000000042fc0                exception_6
                0x0000000000042ff0                exception_7
                0x0000000000043020                exception_8
                0x0000000000043050                exception_9
                0x0000000000043080                exception_10
                0x00000000000430b0                exception_11
                0x00000000000430e0                exception_12
                0x0000000000043110                exception_13
                0x0000000000043140                exception_14
                0x0000000000043170                exception_15
                0x00000000000431a0                exception_16
                0x00000000000431d0                setup_exception_handlers
 *fill*         0x0000000000043472        0xe 
 .text          0x0000000000043480       0x34 ./core/chiplevel/delay.o
                0x0000000000043480                delay
 *fill*         0x00000000000434b4        0xc 
 .text          0x00000000000434c0      0xb1a ./core/chiplevel/int.o
                0x00000000000434c0                GetIDTPTR
                0x00000000000434d0                init_gdt
                0x0000000000043580                dump_gdt_info
                0x0000000000043680                int_redirectidt
                0x0000000000043740                init_idt
                0x0000000000043760                init_safe_idt
                0x00000000000437d0                setint
                0x0000000000043810                getint
                0x0000000000043830                Init8259
                0x0000000000043910                enable_irq
                0x0000000000043970                disable_irq
                0x00000000000439e0                dump_critical
                0x0000000000043ce0                irqdebugger
                0x0000000000043fa0                set_cdseg
 *fill*         0x0000000000043fda        0x6 
 .text          0x0000000000043fe0       0xb1 ./core/chiplevel/coprocessor_not_found.o
                0x0000000000043fe0                coprocessor_not_found
 *fill*         0x0000000000044091        0xf 
 .text          0x00000000000440a0      0x265 ./core/chiplevel/logging.o
                0x0000000000044100                LoggerThreadProgram
                0x0000000000044280                initSystemLog
                0x0000000000044290                WriteSystemLog
                0x00000000000442b0                initSystemLogging
 *fill*         0x0000000000044305        0xb 
 .text          0x0000000000044310      0xa4a ./core/chiplevel/ansiwin.o
                0x0000000000044310                DrawAnsiWindow
 *fill*         0x0000000000044d5a        0x6 
 .text          0x0000000000044d60       0x60 ./core/chiplevel/io.o
                0x0000000000044d60                outportb
                0x0000000000044d80                inportb
                0x0000000000044d90                outportw
                0x0000000000044db0                inportw
 .text          0x0000000000044dc0      0x63c ./core/chiplevel/msgbox.o
                0x0000000000044dc0                VerifyMessage
                0x0000000000044df0                initMessageBox
                0x0000000000044e70                createMessageBox
                0x0000000000044f00                ActivateThreadMessageBox
                0x0000000000044f80                sendMessage
                0x00000000000452c0                receiveMessage
 *fill*         0x00000000000453fc        0x4 
 .text          0x0000000000045400      0x14e ./core/chiplevel/dma.o
                0x0000000000045400                _dma_xfer
                0x0000000000045500                dma_xfer
 *fill*         0x000000000004554e        0x2 
 .text          0x0000000000045550     0x1549 ./core/chiplevel/scs.o
                0x0000000000045550                scall_nothing
                0x0000000000045560                scall_inputmouse
                0x00000000000455b0                scall_postcmd
                0x00000000000455c0                scall_getamemsize
                0x00000000000455e0                scall_getcurrentthread
                0x00000000000455f0                scall_wgetch
                0x0000000000045600                scall_getch
                0x0000000000045610                scall_putchar
                0x0000000000045650                scall_killthread
                0x0000000000045670                scall_exit
                0x00000000000456a0                scall_clrscr
                0x00000000000456c0                scall_getcurdev
                0x00000000000456d0                scall_getcurdb
                0x00000000000456e0                scall_gotoxy
                0x0000000000045700                scall_gettickcount
                0x0000000000045710                scall_getargc
                0x0000000000045750                scall_waitprocterm
                0x0000000000045770                scall_textcolor
                0x0000000000045790                scall_textbackground
                0x00000000000457b0                scall_setmouserect
                0x0000000000045800                scall_vgawaitretrace
                0x0000000000045820                scall_chdir
                0x0000000000045840                scall_mkfs
                0x0000000000045860                scall_mkdir
                0x0000000000045880                scall_wherex
                0x0000000000045890                scall_wherey
                0x00000000000458a0                scall_vgaselectplane
                0x00000000000458d0                scall_getthreadpriority
                0x00000000000458f0                scall_getthreadspending
                0x0000000000045910                scall_getthreadmemoryusage
                0x0000000000045930                scall_getthreadcount
                0x0000000000045940                scall_getctrl
                0x0000000000045970                scall_getalt
                0x00000000000459a0                scall_activatemsgbox
                0x00000000000459c0                scall_getseconds
                0x00000000000459d0                scall_getthreadterminal
                0x00000000000459f0                scall_setthreadterminal
                0x0000000000045a20                scall_newterminal
                0x0000000000045a30                scall_outputterminalkeyboardbuffer
                0x0000000000045a60                scall_inputterminalkeyboardbuffer
                0x0000000000045a80                scall_getcursorlocation
                0x0000000000045aa0                scall_setint
                0x0000000000045ae0                scall_enableirq
                0x0000000000045b00                scall_diskchange
                0x0000000000045b20                scall_getthreaduniquepid
                0x0000000000045b40                scall_switchtothreadex
                0x0000000000045b60                scall_createterminal
                0x0000000000045b90                scall_setterminalowner
                0x0000000000045bb0                scall_getterminalowner
                0x0000000000045bd0                scall_serialget
                0x0000000000045bf0                scall_serialput
                0x0000000000045c10                scall_setserialportspeed
                0x0000000000045c40                scall_opensocket
                0x0000000000045c90                scall_closesocket
                0x0000000000045ce0                scall_milsleep
                0x0000000000045d00                scall_getcwd
                0x0000000000045d20                scall_kmalloc
                0x0000000000045d40                scall_kfree
                0x0000000000045d60                scall_open
                0x0000000000045d80                scall_close
                0x0000000000045da0                scall_read
                0x0000000000045dd0                scall_write
                0x0000000000045e00                scall_lseek
                0x0000000000045e30                scall_stat
                0x0000000000045e50                scall_fstat
                0x0000000000045eb0                scall_globalcopy
                0x0000000000045fd0                scall_switchtothread
                0x0000000000045fe0                scall_rename
                0x0000000000045ff0                scall_findfirst
                0x0000000000046000                scall_findnext
                0x0000000000046010                A2K
                0x0000000000046050                scall_puts
                0x00000000000460a0                scall_getargv
                0x00000000000461e0                scall_cexec
                0x0000000000046320                scall_vgadrawframe
                0x00000000000463f0                scall_remove
                0x0000000000046430                scall_getdevicenrbyname
                0x0000000000046490                scall_getdevicename
                0x00000000000464f0                scall_getdate
                0x0000000000046520                scall_getthreadname
                0x0000000000046550                scall_sendmessage
                0x0000000000046580                scall_receivemessage
                0x00000000000465a0                scall_getthreadpid
                0x00000000000465c0                scall_identifythread
                0x0000000000046640                scall_copyterminal
                0x00000000000466a0                scall_registernewdevice
                0x0000000000046710                scall_receiverawpacket
                0x0000000000046760                scall_transmitrawpacket
                0x00000000000467b0                scall_devicecall
                0x0000000000046870                scall_readsocket
                0x00000000000468d0                scall_writesocket
                0x0000000000046930                _A2K
                0x0000000000046960                scallActive
                0x0000000000046a20                scallDeactive
                0x0000000000046a40                scall_relaxthread
                0x0000000000046a50                GetTCPIPStackDNR
                0x0000000000046a70                scall_fnctl
                0x0000000000046a80                scall_lstat
 *fill*         0x0000000000046a99        0x7 
 .text          0x0000000000046aa0       0x90 ./core/chiplevel/system_call.o
                0x0000000000046aa0                scall_init
 .text          0x0000000000046b30       0x92 ./core/chiplevel/IdleThread.o
                0x0000000000046b30                IdleThreadProgram
                0x0000000000046b60                init_IdleThread
 *fill*         0x0000000000046bc2        0xe 
 .text          0x0000000000046bd0       0x99 ./core/chiplevel/exec.o
                0x0000000000046bd0                ExecKProc
                0x0000000000046c60                ExecProc
 *fill*         0x0000000000046c69        0x7 
 .text          0x0000000000046c70       0xc5 ./core/chiplevel/dfunc.o
                0x0000000000046c70                dprintk
                0x0000000000046cf0                dsleep
 *fill*         0x0000000000046d35        0xb 
 .text          0x0000000000046d40       0xa0 ./core/chiplevel/scs_devices.o
                0x0000000000046d40                scall_getdevnrbyname
                0x0000000000046d60                scall_readblock
                0x0000000000046da0                scall_writeblock
 .text          0x0000000000046de0       0x3f ./core/chiplevel/coprocessor.o
                0x0000000000046de0                ASMexception_7
                0x0000000000046e04                fpu_save
                0x0000000000046e12                fpu_restore
 *fill*         0x0000000000046e1f        0x1 
 .text          0x0000000000046e20       0xe7 ./core/chiplevel/mkstack.o
                0x0000000000046e20                RenderThreadStack
                0x0000000000046edb                newcs
                0x0000000000046edf                newds
                0x0000000000046eff                tarkitus_ecx
                0x0000000000046f03                tarkitus_esp
 *fill*         0x0000000000046f07        0x9 
 .text          0x0000000000046f10      0x210 ./core/chiplevel/scall_handler.o
                0x0000000000047000                scall_handler
                0x000000000004711b                scall_dummy
 .text          0x0000000000047120      0xa29 ./core/chiplevel/llint.o
                0x0000000000047120                tswitch
                0x00000000000471c5                taskSwitchNr
                0x00000000000472e4                idle_moment
                0x00000000000472f9                pit_low
                0x00000000000475fa                outportd
                0x0000000000047606                inportd
                0x000000000004760f                restoresegregs
                0x0000000000047660                storesegregs
                0x00000000000476a1                tmpds
                0x00000000000476a3                tmpes
                0x00000000000476a5                tmpfs
                0x00000000000476a7                tmpgs
                0x00000000000476a9                tmpss
                0x00000000000476ab                get_eflags
                0x00000000000476ae                set_eflags
                0x00000000000476cc                ASMexception_0
                0x000000000004770c                ASMexception_1
                0x000000000004774c                ASMexception_2
                0x000000000004778c                ASMexception_3
                0x00000000000477cc                ASMexception_4
                0x000000000004780c                ASMexception_5
                0x000000000004784c                ASMexception_6
                0x000000000004788c                ASMexception_8
                0x00000000000478cc                ASMexception_9
                0x000000000004790c                ASMexception_10
                0x000000000004794c                ASMexception_11
                0x000000000004798c                ASMexception_12
                0x00000000000479cc                ASMexception_13
                0x0000000000047a0c                ASMexception_14
                0x0000000000047a4c                ASMexception_15
                0x0000000000047a8c                ASMexception_16
                0x0000000000047acc                HaltNow
                0x0000000000047ad1                whereAD
                0x0000000000047b3d                boot_up
                0x0000000000047b42                jump1234
 *fill*         0x0000000000047b49        0x7 
 .text          0x0000000000047b50       0x4a ./core/chiplevel/scall.o
                0x0000000000047b50                scall
 *fill*         0x0000000000047b9a        0x6 
 .text          0x0000000000047ba0       0x51 ./core/chiplevel/launchapp.o
                0x0000000000047ba0                asmlaunchapp
                0x0000000000047bcf                appoffset
                0x0000000000047bd3                appseg
                0x0000000000047be5                appstackoffs
                0x0000000000047be9                apprealoffs
                0x0000000000047bed                launchapp_cleartogo
 *fill*         0x0000000000047bf1        0xf 
 .text          0x0000000000047c00      0x445 ./core/chiplevel/llexc.o
                0x0000000000047c00                ASMllexception_0
                0x0000000000047c40                ASMllexception_1
                0x0000000000047c80                ASMllexception_2
                0x0000000000047cc0                ASMllexception_3
                0x0000000000047d00                ASMllexception_4
                0x0000000000047d40                ASMllexception_5
                0x0000000000047d80                ASMllexception_6
                0x0000000000047dc0                ASMllexception_7
                0x0000000000047e00                ASMllexception_8
                0x0000000000047e40                ASMllexception_9
                0x0000000000047e80                ASMllexception_10
                0x0000000000047ec0                ASMllexception_11
                0x0000000000047f00                ASMllexception_12
                0x0000000000047f40                ASMllexception_13
                0x0000000000047f80                ASMllexception_14
                0x0000000000047fc0                ASMllexception_15
                0x0000000000048000                ASMllexception_16
                0x0000000000048040                llHaltNow
 *fill*         0x0000000000048045        0xb 
 .text          0x0000000000048050      0x129 ./core/environment/envint.o
                0x0000000000048050                initEnvDatabase
                0x0000000000048160                ksetenv
                0x0000000000048170                kgetenv
 *fill*         0x0000000000048179        0x7 
 .text          0x0000000000048180      0x39b ./core/environment/env.o
                0x0000000000048200                envdb_CreateVariableDatabase
                0x00000000000482c0                envdb_SetVariable
                0x00000000000483d0                envdb_GetVariable
                0x00000000000484c0                envdb_DeleteVariable
 *fill*         0x000000000004851b        0x5 
 .text          0x0000000000048520     0x1cfa ./core/threads/threads.o
                0x0000000000048540                infLoop
                0x0000000000048580                GetThreadML
                0x00000000000485a0                SetThreadML
                0x00000000000485c0                TrackThread
                0x0000000000048600                GetSwitchCount
                0x0000000000048610                unif
                0x0000000000048630                GetThreadPID
                0x0000000000048690                GetThreadTSS
                0x00000000000486d0                SetToSleep
                0x00000000000486f0                schedSleepSwitch
                0x0000000000048720                ThreadTimeOut
                0x0000000000048740                scheduleNextThread
                0x0000000000048750                Schedule
                0x0000000000048770                ThreadGiveMagic
                0x0000000000048780                WaitProcessTermination
                0x00000000000487f0                SwitchToThread
                0x0000000000048810                SwitchToThreadEx
                0x0000000000048870                SetThreadCmdLine
                0x0000000000048920                GetCurrentTerminal
                0x0000000000048950                GetThreadTerminal
                0x0000000000048980                SetThreadTerminal
                0x00000000000489b0                GetThreadShellPTR
                0x00000000000489e0                SetThreadShellPTR
                0x00000000000489f0                GetThreadPriority
                0x0000000000048a20                SetThreadPriority
                0x0000000000048a50                getpid
                0x0000000000048a70                GetCurrentThread
                0x0000000000048a90                GetThreadCount
                0x0000000000048aa0                _IdentifyThread
                0x0000000000048b50                IdentifyThread
                0x0000000000048b80                ThreadCreateStack
                0x0000000000048bd0                ThreadDestroyStack
                0x0000000000048c10                Immortal
                0x0000000000048c40                new_thread
                0x0000000000048cc0                newUniqueThread
                0x0000000000048ce0                set_thread_memory_space
                0x0000000000048de0                set_prio
                0x0000000000048df0                get_prio
                0x0000000000048e20                wait_thread
                0x0000000000048e80                ExitThread
                0x0000000000048ed0                KillThreadEx
                0x0000000000049140                KillThread
                0x0000000000049160                kill
                0x0000000000049180                abort
                0x00000000000491a0                copysregstothread
                0x00000000000492b0                copysregsfromthread
                0x00000000000493b0                SetThreadStack
                0x00000000000493f0                GetThreadLimit
                0x0000000000049460                GetThreadBase
                0x00000000000494c0                set_thread
                0x00000000000495b0                GetCurrentThreadBase
                0x00000000000495e0                MakeAppMemoryMap
                0x00000000000496d0                MapThreadGDT
                0x0000000000049750                TerminateApplication
                0x00000000000497e0                GetThreadUniquePID
                0x0000000000049800                GetRunningThreadsCount
                0x0000000000049860                GetTickCount
                0x0000000000049870                GetTickCount2
                0x0000000000049880                SetThreadType
                0x00000000000498b0                GetThreadType
                0x00000000000498e0                GetThreadDNR
                0x0000000000049910                SetThreadDNR
                0x0000000000049940                GetThreadDB
                0x0000000000049970                SetThreadDB
                0x00000000000499a0                GetCurrentDNR
                0x00000000000499f0                GetCurrentDB
                0x0000000000049a40                create_threadEx
                0x0000000000049bb0                create_thread
                0x0000000000049bf0                CreateThreadA
                0x0000000000049c30                _createAppThread
                0x0000000000049d80                SleepSecond
                0x0000000000049dd0                sleep
                0x0000000000049e20                init_threads
                0x000000000004a0b0                GetThreadSpending
                0x000000000004a0e0                GetThreadMemoryUsage
                0x000000000004a120                GetThreadName
                0x000000000004a180                GetThreadMemoryStart
                0x000000000004a1b0                GetThreadMemoryEnd
 .text          0x000000000004a21a        0x0 ./core/threads/threads_db.o
 *fill*         0x000000000004a21a        0x6 
 .text          0x000000000004a220      0x21b ./core/threads/threadSwitch.o
                0x000000000004a220                vmware_sleep
                0x000000000004a250                forceSwitch
 *fill*         0x000000000004a43b        0x5 
 .text          0x000000000004a440      0x1c5 ./core/hwdet/hwdet.o
                0x000000000004a440                hwdetProgram
                0x000000000004a560                hwdet
 *fill*         0x000000000004a605        0xb 
 .text          0x000000000004a610       0xba ./sh/plasma_app.o
                0x000000000004a610                plasma_app
 *fill*         0x000000000004a6ca        0x6 
 .text          0x000000000004a6d0       0x4a ./sh/debugapp.o
                0x000000000004a6d0                debug_app
 *fill*         0x000000000004a71a        0x6 
 .text          0x000000000004a720      0x3d1 ./sh/lsapp.o
                0x000000000004a720                ls_app
 *fill*         0x000000000004aaf1        0xf 
 .text          0x000000000004ab00        0x5 ./sh/getopt.o
                0x000000000004ab00                getopt
 *fill*         0x000000000004ab05        0xb 
 .text          0x000000000004ab10       0x3a ./sh/formatapp.o
                0x000000000004ab10                format_app
 *fill*         0x000000000004ab4a        0x6 
 .text          0x000000000004ab50      0x2e7 ./sh/sh.o
                0x000000000004ab50                help_app
                0x000000000004abb0                getargumentlist
                0x000000000004ac20                run_shell
 *fill*         0x000000000004ae37        0x9 
 .text          0x000000000004ae40       0x3a ./sh/chdirapp.o
                0x000000000004ae40                chdir_app
 *fill*         0x000000000004ae7a        0x6 
 .text          0x000000000004ae80      0x414 ./init/buffer.o
                0x000000000004ae80                InitBuffer
                0x000000000004aeb0                CreateBuffer
                0x000000000004af40                TailForward
                0x000000000004af80                HeadForward
                0x000000000004afd0                PushBuffer
                0x000000000004b070                PopBuffer
                0x000000000004b0e0                GetBuffer
                0x000000000004b120                PutBuffer
                0x000000000004b160                PushBufferW
                0x000000000004b1c0                PopBufferW
                0x000000000004b210                ReadBuffer
                0x000000000004b250                WriteBuffer
 .text          0x000000000004b294        0x0 ./init/sysglvar.o
 *fill*         0x000000000004b294        0xc 
 .text          0x000000000004b2a0       0xab ./init/parse.o
                0x000000000004b2a0                shell_runcmd
                0x000000000004b2c0                parse_cmdline
                0x000000000004b340                shell_parsecmd
 .text          0x000000000004b34b        0x0 ./init/sysapp.o
 *fill*         0x000000000004b34b        0x5 
 .text          0x000000000004b350      0x831 ./init/initsystem.o
                0x000000000004b350                Bingoo
                0x000000000004b380                InitSystem
 .text          0x000000000004bb81        0x0 ./init/keropt.o
 *fill*         0x000000000004bb81        0xf 
 .text          0x000000000004bb90      0x2bc ./init/vesa.o
                0x000000000004bb90                flashy
                0x000000000004bc40                BlitCurrentTerminalToVesa
                0x000000000004bc70                VesaSetup
 *fill*         0x000000000004be4c        0x4 
 .text          0x000000000004be50      0x2bb ./init/init.o
                0x000000000004be50                WaitSystemStart
                0x000000000004be90                FixEgaMemory
                0x000000000004bec0                StartShellProcess
                0x000000000004bf30                OneMegCleanUp
                0x000000000004bf50                KernelInit
                0x000000000004bff0                debugKey
                0x000000000004c030                plasmaInit
 .text          0x000000000004c10b        0x0 ./init/errno.o
 *fill*         0x000000000004c10b        0x5 
 .text          0x000000000004c110      0x459 ./init/callapp.o
                0x000000000004c110                callappex
                0x000000000004c290                callapp
                0x000000000004c2c0                callapp1
                0x000000000004c2f0                callappex2
                0x000000000004c360                ps
 *fill*         0x000000000004c569        0x7 
 .text          0x000000000004c570       0x1e ./init/biosfunc.o
                0x000000000004c570                GetBiosBootDrive
                0x000000000004c580                SetBiosBootDrive
 .text          0x000000000004c58e        0x0 ./init/system.o
 *fill*         0x000000000004c58e        0x2 
 .text          0x000000000004c590       0xe2 ./init/foo.o
                0x000000000004c590                foo
 *fill*         0x000000000004c672        0xe 
 .text          0x000000000004c680       0x15 ./init/test.o
                0x000000000004c680                xx
                0x000000000004c690                la
 *fill*         0x000000000004c695        0xb 
 .text          0x000000000004c6a0       0x12 ./init/sysmisc.o
                0x000000000004c6a0                halt
 *fill*         0x000000000004c6b2        0xe 
 .text          0x000000000004c6c0       0x32 ./init/xml/XML.o
                0x000000000004c6c0                InitSystemPass2_XML
 .text          0x000000000004c6f2        0x0 ./utils/mst.o
 *fill*         0x000000000004c6f2        0xe 
 .text          0x000000000004c700       0x60 ./fs/fgetsize.o
                0x000000000004c700                _fgetsize
 .text          0x000000000004c760       0x1e ./fs/feof.o
                0x000000000004c760                feof
 *fill*         0x000000000004c77e        0x2 
 .text          0x000000000004c780        0x7 ./fs/link.o
                0x000000000004c780                link
 *fill*         0x000000000004c787        0x9 
 .text          0x000000000004c790      0x3e5 ./fs/fopen.o
                0x000000000004c790                _fopen
                0x000000000004cb50                fopen
 *fill*         0x000000000004cb75        0xb 
 .text          0x000000000004cb80        0x7 ./fs/_virtualfilesystem_devcall.o
                0x000000000004cb80                virtual_file_system_device_call
 *fill*         0x000000000004cb87        0x9 
 .text          0x000000000004cb90       0x47 ./fs/freopen.o
                0x000000000004cb90                freopen
 *fill*         0x000000000004cbd7        0x9 
 .text          0x000000000004cbe0       0xd9 ./fs/fprintf.o
                0x000000000004cbe0                vfprintf
                0x000000000004cc90                fprintf
 *fill*         0x000000000004ccb9        0x7 
 .text          0x000000000004ccc0       0x17 ./fs/ftell.o
                0x000000000004ccc0                ftell
 *fill*         0x000000000004ccd7        0x9 
 .text          0x000000000004cce0       0xb5 ./fs/_close.o
                0x000000000004cce0                msdos_close
                0x000000000004cd90                _msdos_setsize
 *fill*         0x000000000004cd95        0xb 
 .text          0x000000000004cda0       0xa3 ./fs/_write.o
                0x000000000004cda0                msdos_write
 *fill*         0x000000000004ce43        0xd 
 .text          0x000000000004ce50      0x38c ./fs/filedes.o
                0x000000000004ce50                FreeFD
                0x000000000004ce60                changeFDOwner
                0x000000000004ce90                get_filedesptr
                0x000000000004cec0                isValidFD
                0x000000000004cf00                filedesInformation
                0x000000000004cfa0                deallocate_proc_filedes
                0x000000000004cfe0                new_filedes
                0x000000000004d0d0                NewFD
                0x000000000004d110                init_filedes
                0x000000000004d1c0                NEW_FILE_DESCRIPTOR
 *fill*         0x000000000004d1dc        0x4 
 .text          0x000000000004d1e0       0x83 ./fs/_mkdir.o
                0x000000000004d1e0                msdos_mkdir
 *fill*         0x000000000004d263        0xd 
 .text          0x000000000004d270       0xb2 ./fs/_lseek.o
                0x000000000004d270                msdos_lseek
 *fill*         0x000000000004d322        0xe 
 .text          0x000000000004d330       0x45 ./fs/_fgetsize.o
                0x000000000004d330                msdos_fgetsize
                0x000000000004d370                _msdos_getfilesize
 *fill*         0x000000000004d375        0xb 
 .text          0x000000000004d380       0x27 ./fs/stat.o
                0x000000000004d380                stat
                0x000000000004d390                fstat
                0x000000000004d3a0                lstat
 *fill*         0x000000000004d3a7        0x9 
 .text          0x000000000004d3b0      0x209 ./fs/_opensocket.o
                0x000000000004d410                isValidSocketString
                0x000000000004d430                GetIPADDRPORT
                0x000000000004d4e0                _opensocket
 *fill*         0x000000000004d5b9        0x7 
 .text          0x000000000004d5c0      0x302 ./fs/_open.o
                0x000000000004d5c0                msdos_open
 *fill*         0x000000000004d8c2        0xe 
 .text          0x000000000004d8d0      0x1ab ./fs/_stat.o
                0x000000000004d8d0                _msdos_stat
                0x000000000004d960                msdos_stat
                0x000000000004d9f0                msdos_fstat
                0x000000000004da50                _msdos_get_file_size
 *fill*         0x000000000004da7b        0x5 
 .text          0x000000000004da80      0x3b6 ./fs/filebuf.o
                0x000000000004da80                rbuf
                0x000000000004dad0                wbuf
                0x000000000004db20                __fenlargebuf
                0x000000000004dbd0                fgetc
                0x000000000004dc80                fputc
                0x000000000004dd60                setbuf
                0x000000000004dda0                setbuffer
                0x000000000004dde0                setlinebuf
                0x000000000004ddf0                setvbuf
 *fill*         0x000000000004de36        0xa 
 .text          0x000000000004de40       0xd8 ./fs/_read.o
                0x000000000004de40                msdos_read
 *fill*         0x000000000004df18        0x8 
 .text          0x000000000004df20       0xd7 ./fs/fseek.o
                0x000000000004df20                fseek
 *fill*         0x000000000004dff7        0x9 
 .text          0x000000000004e000      0x559 ./fs/api.o
                0x000000000004e000                registerNewDevice
                0x000000000004e050                startMessageBox
                0x000000000004e090                Posti
                0x000000000004e0a0                SearchThroughPath
                0x000000000004e1f0                globalcopy
                0x000000000004e240                CopyTerminal
                0x000000000004e280                cexec
                0x000000000004e300                bgexec
                0x000000000004e380                _system
                0x000000000004e400                system
                0x000000000004e550                remove
 *fill*         0x000000000004e559        0x7 
 .text          0x000000000004e560       0x39 ./fs/fflush.o
                0x000000000004e560                fflush
 *fill*         0x000000000004e599        0x7 
 .text          0x000000000004e5a0       0x1d ./fs/fsetsize.o
                0x000000000004e5a0                _fsetsize
 *fill*         0x000000000004e5bd        0x3 
 .text          0x000000000004e5c0       0x89 ./fs/fclose.o
                0x000000000004e5c0                fclose
 *fill*         0x000000000004e649        0x7 
 .text          0x000000000004e650      0x329 ./fs/file.o
                0x000000000004e650                __fnewstream
                0x000000000004e6a0                fgets
                0x000000000004e740                fputs
                0x000000000004e7a0                fread
                0x000000000004e830                fwrite
                0x000000000004e970                putc
 *fill*         0x000000000004e979        0x7 
 .text          0x000000000004e980       0x42 ./fs/tmpnam.o
                0x000000000004e980                tmpnam
 .text          0x000000000004e9c2        0x0 ./fs/filedir.o
 *fill*         0x000000000004e9c2        0xe 
 .text          0x000000000004e9d0       0x15 ./fs/_chdir.o
                0x000000000004e9d0                _chdir
                0x000000000004e9e0                _fchdir
 *fill*         0x000000000004e9e5        0xb 
 .text          0x000000000004e9f0        0x7 ./fs/filedesbuf.o
                0x000000000004e9f0                FlushFDBuffers
 *fill*         0x000000000004e9f7        0x9 
 .text          0x000000000004ea00      0x1a7 ./fs/fat12/msdosio.o
                0x000000000004ea00                _msdos_readdir
                0x000000000004ea50                _msdos_read
                0x000000000004eaa0                _msdos_write
                0x000000000004eaf0                msdos_loadbootsector
                0x000000000004eb00                msdos_mount_drive
                0x000000000004eb50                msdos_unmount_drive
                0x000000000004eb60                msdos_scanrootblock
                0x000000000004eb90                _msdos_open
                0x000000000004eba0                _msdos_close
 *fill*         0x000000000004eba7        0x9 
 .text          0x000000000004ebb0      0x1c4 ./fs/jtmfs/jtmfsPath.o
                0x000000000004ebb0                resolvePath
                0x000000000004ec60                resolveFileNamePath
 *fill*         0x000000000004ed74        0xc 
 .text          0x000000000004ed80       0xf8 ./fs/jtmfs/fslast.o
                0x000000000004ed80                jtmfs_seektolastentry
 *fill*         0x000000000004ee78        0x8 
 .text          0x000000000004ee80     0x160b ./fs/jtmfs/directfileaccess.o
                0x000000000004ee80                renamefile
                0x000000000004ef60                createfile
                0x000000000004f050                deletefile
                0x000000000004f110                readfile
                0x000000000004f410                writefile
                0x000000000004f690                getfilesize
                0x000000000004f7c0                addfileblocks
                0x000000000004f8b0                setsize
                0x000000000004f9c0                exist
                0x000000000004fa80                findfirst
                0x000000000004fb40                findnext
                0x000000000004fbc0                getfiledatablock
                0x000000000004fc30                createdirectory
                0x000000000004fcb0                formatdrive
                0x000000000004fd10                changedirectory
                0x000000000004fda0                isdriveready
                0x000000000004fe00                getcwd
                0x000000000004fe70                open
                0x000000000004fef0                creat
                0x000000000004ff80                close
                0x000000000004ffe0                read
                0x0000000000050070                write
                0x0000000000050100                lseek
                0x0000000000050170                readdir
                0x00000000000501d0                mkdir
                0x0000000000050230                rmdir
                0x0000000000050290                unlink
                0x00000000000502f0                chdir
                0x0000000000050350                mkfs
                0x00000000000503c0                sync
                0x0000000000050430                syncfs
 *fill*         0x000000000005048b        0x5 
 .text          0x0000000000050490      0x12f ./fs/jtmfs/fname_translation.o
                0x0000000000050490                tell_fname
 *fill*         0x00000000000505bf        0x1 
 .text          0x00000000000505c0       0x59 ./fs/jtmfs/isJTMFS.o
                0x00000000000505c0                onNonJTMFSDrive
                0x00000000000505d0                isJTMFSBootBlock
 *fill*         0x0000000000050619        0x7 
 .text          0x0000000000050620     0x133f ./fs/jtmfs/jtmfs.o
                0x0000000000050620                jtmfs_DiskChange
                0x0000000000050630                InitDW
                0x0000000000050670                EndDirWalk
                0x0000000000050680                jtmfs_inc_try
                0x0000000000050720                jtmfs_init
                0x0000000000050730                jtmfs_init_try
                0x0000000000050740                jtmfs_ffupdatefe
                0x0000000000050790                jtmfs_fentry
                0x0000000000050870                jtmfs_cedir
                0x0000000000050910                jtmfs_cedirend
                0x0000000000050960                jtmfs_createdirectory
                0x0000000000050d60                jtmfs_getrootdir
                0x0000000000050d90                jtmfs_createrootdir
                0x0000000000050ea0                jtmfs_dirroot
                0x0000000000050ee0                jtmfs_ffIsLast
                0x0000000000050f20                jtmfs_clearwbuf
                0x0000000000050f30                jtmfs_expandchain
                0x0000000000051180                jtmfs_ffreadlocation
                0x00000000000511e0                jtmfs_ffwritelocation
                0x0000000000051280                jtmfs_entryIsDeleted
                0x00000000000512a0                jtmfs_renamefile
                0x0000000000051390                jtmfs_setsize
                0x00000000000514d0                jtmfs_deletechain
                0x0000000000051610                jtmfs_deletefile
                0x0000000000051720                jtmfs_getfilesize
                0x0000000000051770                jtmfs_getfileblocksize
                0x00000000000518b0                jtmfs_fexist
 *fill*         0x000000000005195f        0x1 
 .text          0x0000000000051960      0x1d3 ./fs/jtmfs/fsfind.o
                0x00000000000519b0                jtmfs_ffindfile
                0x0000000000051a30                jtmfs_ResolveDirName
                0x0000000000051a60                jtmfs_ffindghostfile
                0x0000000000051a70                jtmfs_ffindfirstghostfile
                0x0000000000051b10                jtmfs_ffindnextghostfile
 *fill*         0x0000000000051b33        0xd 
 .text          0x0000000000051b40      0x2a0 ./fs/jtmfs/dirdbWalk.o
                0x0000000000051bc0                dirdb_flushRequirement
                0x0000000000051c60                dirdb_stepover
                0x0000000000051c90                dirdb_fnext
                0x0000000000051d10                dirdb_ffirst
 .text          0x0000000000051de0      0x18d ./fs/jtmfs/flexCorruption.o
                0x0000000000051de0                checkFat
                0x0000000000051e10                ffCheck
                0x0000000000051e30                jtmfatInformation1
                0x0000000000051f00                jtmfatInformation
 .text          0x0000000000051f6d        0x0 ./fs/jtmfs/fsdev.o
 *fill*         0x0000000000051f6d        0x3 
 .text          0x0000000000051f70      0x2b3 ./fs/jtmfs/dirdbFind.o
                0x0000000000051f70                dirdb_ffindfileEx
                0x0000000000052080                dirdb_ffindfile
                0x00000000000520c0                dirdb_ffindghostfile
                0x0000000000052100                dirdb_ffinddirname
                0x0000000000052140                dirdb_GetDirName
 *fill*         0x0000000000052223        0xd 
 .text          0x0000000000052230       0x53 ./fs/jtmfs/mount.o
                0x0000000000052230                mountDNR
                0x0000000000052260                unmountDNR
 *fill*         0x0000000000052283        0xd 
 .text          0x0000000000052290      0xa8d ./fs/jtmfs/createfat.o
                0x0000000000052290                BuildInfoBlock
                0x0000000000052420                DetermineBootdrv
                0x00000000000524f0                WriteInformationBlock
                0x00000000000525f0                jtmfat_createfat
                0x00000000000529a0                ReadInformationBlock
                0x0000000000052a40                SetKernelChecksum
                0x0000000000052ae0                WriteKernel
                0x0000000000052ba0                DetermineKernelChecksum
                0x0000000000052be0                CopyKernel
 *fill*         0x0000000000052d1d        0x3 
 .text          0x0000000000052d20      0x31f ./fs/jtmfs/fsadd.o
                0x0000000000052d20                jtmfs_adddirentry
 *fill*         0x000000000005303f        0x1 
 .text          0x0000000000053040     0x10c9 ./fs/jtmfs/flexFat.o
                0x0000000000053040                flexHealthCheck
                0x00000000000530a0                flexFatInit
                0x0000000000053180                clearFatContents
                0x0000000000053210                flexAllocateFat
                0x00000000000533f0                AnalyzeFATs
                0x0000000000053420                AnalyzeFAT
                0x0000000000053430                flexRWFAT
                0x00000000000537f0                flexFlushFAT
                0x0000000000053890                flexActivateFat
                0x0000000000053970                flexGetFatSize
                0x0000000000053990                flexTouchFat
                0x0000000000053b40                flexSetWM
                0x0000000000053b60                flexAffectWM
                0x0000000000053ba0                _FastSetBlock
                0x0000000000053cc0                FastSetBlocks
                0x0000000000053dd0                _FastGetBlock
                0x0000000000053e60                _flexFatGetBlock
                0x0000000000053f60                _flexFatSetBlock
                0x0000000000054080                flexDiskChange
 *fill*         0x0000000000054109        0x7 
 .text          0x0000000000054110      0xb45 ./fs/jtmfs/dirdbAccess.o
                0x0000000000054110                dirdb_clearCacheForDNR
                0x0000000000054190                dirdb_DiskChange
                0x00000000000541a0                getAlreadyFreeDBEntry
                0x0000000000054330                reserveNewDBEntry
                0x00000000000543a0                getFreeDBEntry
                0x0000000000054400                dbGiveDir
                0x0000000000054580                dirdb_clearCacheForDBEx
                0x0000000000054600                dirdb_clearCacheForDB
                0x0000000000054690                db_ReadDirectory
                0x00000000000547a0                dirdbFlush
                0x0000000000054880                countEntries
                0x0000000000054920                readDir
                0x0000000000054a70                copyDirToDB
                0x0000000000054b60                touchDir
 *fill*         0x0000000000054c55        0xb 
 .text          0x0000000000054c60      0x14a ./fs/jtmfs/format.o
                0x0000000000054c60                jtmfs_formatdrive
 *fill*         0x0000000000054daa        0x6 
 .text          0x0000000000054db0       0xc9 ./fs/jtmfs/dirdbInformation.o
                0x0000000000054db0                dirdbInformation
 *fill*         0x0000000000054e79        0x7 
 .text          0x0000000000054e80      0x547 ./fs/jtmfs/WriteChain.o
                0x0000000000054e80                jtmfs_WriteFileChainEx
                0x0000000000055360                jtmfs_WriteFileChain
 *fill*         0x00000000000553c7        0x9 
 .text          0x00000000000553d0      0x35b ./fs/jtmfs/writeDir.o
                0x00000000000553d0                writeDir
 *fill*         0x000000000005572b        0x5 
 .text          0x0000000000055730      0x31f ./fs/jtmfs/fsdos.o
                0x0000000000055730                FE2BLK
                0x0000000000055780                NAME2BLK
                0x00000000000557c0                jtmfs_findfirst
                0x0000000000055970                jtmfs_findnext
 *fill*         0x0000000000055a4f        0x1 
 .text          0x0000000000055a50       0xec ./fs/jtmfs/dirdb.o
                0x0000000000055a50                pause
                0x0000000000055a70                dirdb_init
 *fill*         0x0000000000055b3c        0x4 
 .text          0x0000000000055b40       0x9f ./fs/jtmfs/jtmfsAccessInit.o
                0x0000000000055b40                jtmfsAccessInit
 *fill*         0x0000000000055bdf        0x1 
 .text          0x0000000000055be0       0x83 ./fs/jtmfs/root.o
                0x0000000000055be0                getRootDNR
                0x0000000000055bf0                mount_root
                0x0000000000055c30                umount_root
 *fill*         0x0000000000055c63        0xd 
 .text          0x0000000000055c70      0x1ff ./fs/jtmfs/fswalk.o
                0x0000000000055c70                jtmfs_stepover
                0x0000000000055c80                jtmfs_fnext
                0x0000000000055c90                jtmfs_fend
                0x0000000000055cb0                jtmfs_ffirst
 *fill*         0x0000000000055e6f        0x1 
 .text          0x0000000000055e70     0x1a2a ./fs/jtmfs/jtmfsAccess.o
                0x0000000000055e70                jtmfs_isDriveReady
                0x0000000000055ea0                jtmfs_GetDirName
                0x0000000000055f00                jtmfs_GetFileDataBlock
                0x0000000000055fc0                jtmfs_DeleteFile
                0x00000000000560a0                jtmfs_CreateFile
                0x0000000000056360                jtmfs_LastBlock
                0x0000000000056370                jtmfs_GetFileSize
                0x00000000000564b0                jtmfs_WriteFile
                0x0000000000056740                _jtmfs_ReadFile
                0x00000000000569b0                jtmfs_AddBlocks
                0x0000000000056a90                jtmfs_Fexist
                0x0000000000056bd0                jtmfs_SetSize
                0x0000000000056cb0                jtmfs_RenameFile
                0x0000000000056dd0                GetCurrentDrive
                0x0000000000056e40                _jtmfs_chdir
                0x0000000000057230                jtmfs_chdir
                0x00000000000573d0                jtmfs_GetCWD
                0x0000000000057660                IntelligentCHDIR
                0x00000000000576a0                jtmfs_CreateDirectory
                0x0000000000057850                jtmfs_PreloadFATS
 *fill*         0x000000000005789a        0x6 
 .text          0x00000000000578a0      0x281 ./fs/jtmfs/fsaddblocks.o
                0x00000000000578a0                jtmfs_add_blocks_for_entry
 *fill*         0x0000000000057b21        0xf 
 .text          0x0000000000057b30      0x2b5 ./fs/jtmfs/ReadChain.o
                0x0000000000057b30                jtmfs_ReadFileChain
 *fill*         0x0000000000057de5        0xb 
 .text          0x0000000000057df0      0xd25 ./fs/jtmfs/jtmfat.o
                0x0000000000057df0                GetFATChecksum32
                0x0000000000057e30                read_fat
                0x0000000000057e70                write_fat
                0x0000000000057e80                allocate_fat
                0x0000000000057e90                touch_fat
                0x0000000000057ea0                jtmfat_init
                0x00000000000580d0                jtmfat_LoadNewInfoBlock
                0x0000000000058220                _jtmfat_loadinfoblock
                0x0000000000058330                _jtmfat_chdev
                0x0000000000058440                jtmfat_getinfoblock
                0x0000000000058480                RemovableDevice
                0x00000000000584a0                jtmfat_getrootdir1
                0x00000000000585e0                _jtmfat_getrootdir
                0x00000000000586d0                jtmfat_getfreeblock1
                0x00000000000587e0                jtmfat_getfreeblock
                0x0000000000058850                jtmfat_isJTMFS
                0x00000000000588b0                jtmfat_getblocksfree
                0x00000000000589a0                jtmfat_getblocksallocated
                0x0000000000058ab0                jtmfat_deactivateFatDNR
                0x0000000000058b10                _jtmfatInformation
 *fill*         0x0000000000058b15        0xb 
 .text          0x0000000000058b20      0x3b9 ./fs/jtmfs/dir.o
                0x0000000000058b20                jtmfs_dir
 *fill*         0x0000000000058ed9        0x7 
 .text          0x0000000000058ee0        0x5 ./fs/jtmfs/dirdbCorruption.o
                0x0000000000058ee0                dirdbCorruptionCheck
 *(.rodata*)
 .rodata.str1.1
                0x0000000000058ee5       0x11 ./mm/mmBit.o
 *fill*         0x0000000000058ef6        0x2 
 .rodata.str1.4
                0x0000000000058ef8       0x2b ./mm/scanmem.o
 .rodata.str1.1
                0x0000000000058f23        0x7 ./mm/scanmem.o
 *fill*         0x0000000000058f2a        0x2 
 .rodata.str1.4
                0x0000000000058f2c       0x33 ./mm/mmEntry.o
 *fill*         0x0000000000058f5f        0x1 
 .rodata        0x0000000000058f60        0xe ./mm/mmEntry.o
 .rodata.str1.1
                0x0000000000058f6e      0x11f ./mm/mm.o
 *fill*         0x000000000005908d        0x3 
 .rodata.str1.4
                0x0000000000059090      0x137 ./mm/mm.o
 *fill*         0x00000000000591c7        0x1 
 .rodata        0x00000000000591c8       0x2c ./mm/mm.o
 .rodata.str1.1
                0x00000000000591f4      0x110 ./mm/paging.o
 .rodata        0x0000000000059304       0x14 ./mm/paging.o
 .rodata.str1.1
                0x0000000000059318       0x12 ./mm/mmTest.o
 *fill*         0x000000000005932a        0x2 
 .rodata        0x000000000005932c        0x7 ./mm/mmTest.o
 *fill*         0x0000000000059333        0x1 
 .rodata.str1.4
                0x0000000000059334       0x81 ./mm/mmAlloc.o
 .rodata.str1.1
                0x00000000000593b5       0x1e ./mm/mmAlloc.o
 .rodata.str1.1
                0x00000000000593d3       0x1d ./drivers/driver_flush.o
 .rodata.str1.4
                0x00000000000593f0       0x50 ./drivers/driver_flush.o
 .rodata        0x0000000000059440       0x56 ./drivers/driver_flush.o
 *fill*         0x0000000000059496        0x2 
 .rodata.str1.4
                0x0000000000059498       0x47 ./drivers/driver_remdevcall.o
 *fill*         0x00000000000594df        0x1 
 .rodata        0x00000000000594e0       0x11 ./drivers/driver_remdevcall.o
 *fill*         0x00000000000594f1        0x3 
 .rodata        0x00000000000594f4        0xc ./drivers/driver_api_devcall.o
 .rodata.str1.4
                0x0000000000059500       0x32 ./drivers/driver_api.o
 .rodata.str1.1
                0x0000000000059532      0x135 ./drivers/driver_api.o
 *fill*         0x0000000000059667        0x1 
 .rodata        0x0000000000059668        0xe ./drivers/driver_api.o
 *fill*         0x0000000000059676        0x2 
 .rodata        0x0000000000059678       0x46 ./drivers/driver_rw.o
 *fill*         0x00000000000596be        0x2 
 .rodata.str1.4
                0x00000000000596c0       0xb3 ./drivers/driver_sys.o
 .rodata.str1.1
                0x0000000000059773       0x40 ./drivers/driver_sys.o
 *fill*         0x00000000000597b3        0x1 
 .rodata        0x00000000000597b4       0x2e ./drivers/driver_sys.o
 .rodata.str1.1
                0x00000000000597e2       0x4b ./drivers/partsup/partsup.o
 *fill*         0x000000000005982d        0x3 
 .rodata.str1.4
                0x0000000000059830       0x95 ./drivers/partsup/partsup.o
 *fill*         0x00000000000598c5        0x3 
 .rodata        0x00000000000598c8       0x34 ./drivers/partsup/partsup.o
 .rodata.str1.1
                0x00000000000598fc       0x3e ./drivers/keyboard/keyb.o
 *fill*         0x000000000005993a        0x2 
 .rodata.str1.4
                0x000000000005993c       0xd3 ./drivers/keyboard/keyb.o
 *fill*         0x0000000000059a0f        0x1 
 .rodata        0x0000000000059a10        0xd ./drivers/keyboard/keyb.o
 .rodata.str1.1
                0x0000000000059a1d       0x39 ./drivers/keyboard/scanasc.o
 *fill*         0x0000000000059a56        0x2 
 .rodata        0x0000000000059a58      0x164 ./drivers/keyboard/scanasc.o
 .rodata.str1.1
                0x0000000000059bbc        0x4 ./drivers/lpt/lpt.o
 .rodata.str1.4
                0x0000000000059bc0       0xce ./drivers/lpt/lpt.o
 .rodata.str1.1
                0x0000000000059c8e        0x4 ./drivers/ega/ega.o
 *fill*         0x0000000000059c92        0x2 
 .rodata.str1.4
                0x0000000000059c94       0x36 ./drivers/ega/ega.o
 *fill*         0x0000000000059cca        0x2 
 .rodata        0x0000000000059ccc       0x28 ./drivers/ega/ega_ansi.o
 .rodata.str1.1
                0x0000000000059cf4       0x21 ./drivers/audio/audio.o
 *fill*         0x0000000000059d15        0x3 
 .rodata.str1.4
                0x0000000000059d18       0x3f ./drivers/audio/audio.o
 *fill*         0x0000000000059d57        0x1 
 .rodata.str1.4
                0x0000000000059d58       0x5e ./drivers/floppy/fdc_dev2.o
 *fill*         0x0000000000059db6        0x2 
 .rodata        0x0000000000059db8       0x44 ./drivers/floppy/fdc_dev2.o
 .rodata.str1.1
                0x0000000000059dfc        0x8 ./drivers/floppy/fdc_dev2.o
 .rodata.str1.4
                0x0000000000059e04       0x34 ./drivers/floppy/fdcCache.o
 .rodata.str1.1
                0x0000000000059e38       0x1d ./drivers/floppy/fdcCache.o
 *fill*         0x0000000000059e55        0x3 
 .rodata        0x0000000000059e58       0x2a ./drivers/floppy/fdcCache.o
 .rodata.str1.1
                0x0000000000059e82       0x5e ./drivers/floppy/fdc.o
 .rodata.str1.4
                0x0000000000059ee0      0x163 ./drivers/floppy/fdc.o
 *fill*         0x000000000005a043        0x1 
 .rodata        0x000000000005a044      0x117 ./drivers/floppy/fdc.o
 .rodata.str1.1
                0x000000000005a15b       0x25 ./drivers/floppy/fdcser.o
 .rodata.str1.4
                0x000000000005a180       0xc5 ./drivers/floppy/fdcser.o
 *fill*         0x000000000005a245        0x3 
 .rodata        0x000000000005a248       0x1f ./drivers/floppy/fdcser.o
 .rodata.str1.1
                0x000000000005a267       0x22 ./drivers/floppy/fdc_dev.o
 *fill*         0x000000000005a289        0x3 
 .rodata.str1.4
                0x000000000005a28c       0x5e ./drivers/floppy/fdc_dev.o
 *fill*         0x000000000005a2ea        0x2 
 .rodata        0x000000000005a2ec       0x43 ./drivers/floppy/fdc_dev.o
 .rodata.str1.1
                0x000000000005a32f        0x6 ./drivers/slip/slipKernelMain.o
 *fill*         0x000000000005a335        0x3 
 .rodata.str1.4
                0x000000000005a338       0x4e ./drivers/slip/slipKernelMain.o
 .rodata.str1.1
                0x000000000005a386        0x5 ./drivers/slip/slipDev.o
 *fill*         0x000000000005a38b        0x1 
 .rodata.str1.4
                0x000000000005a38c       0xe7 ./drivers/slip/slipDev.o
 *fill*         0x000000000005a473        0x1 
 .rodata        0x000000000005a474        0xc ./drivers/slip/slipDev.o
 .rodata.str1.1
                0x000000000005a480      0x167 ./drivers/slip/slipLogin.o
 *fill*         0x000000000005a5e7        0x1 
 .rodata.str1.4
                0x000000000005a5e8       0xb3 ./drivers/slip/slipLogin.o
 .rodata.str1.1
                0x000000000005a69b       0x43 ./drivers/slip/slipStack.o
 *fill*         0x000000000005a6de        0x2 
 .rodata.str1.4
                0x000000000005a6e0      0x133 ./drivers/slip/slipStack.o
 *fill*         0x000000000005a813        0x1 
 .rodata        0x000000000005a814       0x42 ./drivers/slip/slipStack.o
 *fill*         0x000000000005a856        0x2 
 .rodata.str1.4
                0x000000000005a858      0x320 ./drivers/term/term.o
 .rodata.str1.1
                0x000000000005ab78       0xc2 ./drivers/term/term.o
 *fill*         0x000000000005ac3a        0x2 
 .rodata        0x000000000005ac3c       0x9c ./drivers/term/term.o
 .rodata.str1.1
                0x000000000005acd8        0x5 ./drivers/null/null.o
 *fill*         0x000000000005acdd        0x3 
 .rodata.str1.4
                0x000000000005ace0       0x37 ./drivers/null/null.o
 .rodata.str1.1
                0x000000000005ad17       0x25 ./drivers/mouse/SerialMouseDev.o
 .rodata.str1.4
                0x000000000005ad3c       0x2a ./drivers/mouse/SerialMouseDev.o
 .rodata.str1.1
                0x000000000005ad66       0x65 ./drivers/mouse/ps2mouse.o
 *fill*         0x000000000005adcb        0x1 
 .rodata.str1.4
                0x000000000005adcc       0x8b ./drivers/mouse/ps2mouse.o
 .rodata.str1.1
                0x000000000005ae57        0xa ./drivers/mouse/SerialMouse.o
 .rodata.str1.1
                0x000000000005ae61       0x46 ./drivers/pci/pci.o
 *fill*         0x000000000005aea7        0x1 
 .rodata.str1.4
                0x000000000005aea8       0x5c ./drivers/pci/pci.o
 .rodata.str1.1
                0x000000000005af04        0x7 ./drivers/vmware/vmware.o
 .rodata.str1.1
                0x000000000005af0b        0x4 ./drivers/vga/vga.o
 *fill*         0x000000000005af0f        0x1 
 .rodata.str1.4
                0x000000000005af10       0x36 ./drivers/vga/vga.o
 *fill*         0x000000000005af46        0x2 
 .rodata        0x000000000005af48       0x30 ./drivers/vga/vga.o
 .rodata        0x000000000005af78       0x24 ./drivers/alt/alt.o
 .rodata.str1.1
                0x000000000005af9c        0x8 ./drivers/alt/alt.o
 .rodata.str1.4
                0x000000000005afa4       0x37 ./drivers/alt/alt.o
 .rodata.str1.1
                0x000000000005afdb        0x7 ./drivers/serial/serial_dev.o
 *fill*         0x000000000005afe2        0x2 
 .rodata.str1.4
                0x000000000005afe4       0x39 ./drivers/serial/serial_dev.o
 .rodata.str1.1
                0x000000000005b01d       0x5c ./drivers/serial/serial.o
 *fill*         0x000000000005b079        0x3 
 .rodata.str1.4
                0x000000000005b07c       0x6e ./drivers/serial/serial.o
 .rodata.str1.1
                0x000000000005b0ea       0x24 ./drivers/gus/gus.o
 *fill*         0x000000000005b10e        0x2 
 .rodata.str1.4
                0x000000000005b110       0xb5 ./drivers/gus/gus.o
 *fill*         0x000000000005b1c5       0x1b 
 .rodata        0x000000000005b1e0       0x6c ./drivers/gus/gus.o
 .rodata.str1.1
                0x000000000005b24c        0x3 ./drivers/sb/sb_dev.o
 .rodata.str1.1
                0x000000000005b24f       0xe5 ./drivers/sb/sb.o
 .rodata.str1.4
                0x000000000005b334      0x3eb ./drivers/sb/sb.o
 *fill*         0x000000000005b71f        0x1 
 .rodata        0x000000000005b720       0x72 ./drivers/sb/sb.o
 .rodata.str1.1
                0x000000000005b792       0x28 ./drivers/ramdisk/ramser.o
 *fill*         0x000000000005b7ba        0x2 
 .rodata.str1.4
                0x000000000005b7bc       0x98 ./drivers/ramdisk/ramser.o
 .rodata        0x000000000005b854       0x1f ./drivers/ramdisk/ramser.o
 .rodata.str1.1
                0x000000000005b873       0x5d ./drivers/ramdisk/ramdisk.o
 .rodata.str1.4
                0x000000000005b8d0      0x268 ./drivers/ramdisk/ramdisk.o
 .rodata        0x000000000005bb38       0x5b ./drivers/ramdisk/ramdisk.o
 *fill*         0x000000000005bb93        0x1 
 .rodata.str1.4
                0x000000000005bb94       0xc0 ./drivers/hd/hdDetect.o
 .rodata.str1.1
                0x000000000005bc54       0x44 ./drivers/hd/hdDetect.o
 .rodata        0x000000000005bc98       0x24 ./drivers/hd/hdDetect.o
 .rodata        0x000000000005bcbc       0x49 ./drivers/hd/hdDev.o
 *fill*         0x000000000005bd05        0x3 
 .rodata.str1.4
                0x000000000005bd08       0x4f ./drivers/hd/hdMisc.o
 .rodata.str1.1
                0x000000000005bd57       0x2c ./drivers/hd/hdMisc.o
 *fill*         0x000000000005bd83        0x1 
 .rodata        0x000000000005bd84       0x1d ./drivers/hd/hdMisc.o
 *fill*         0x000000000005bda1        0x3 
 .rodata.str1.4
                0x000000000005bda4       0x2d ./drivers/hd/hdBlockRW.o
 .rodata.str1.1
                0x000000000005bdd1        0xa ./drivers/hd/hdBlockRW.o
 *fill*         0x000000000005bddb        0x1 
 .rodata.str1.4
                0x000000000005bddc       0x24 ./drivers/hd/hdRW.o
 .rodata.str1.4
                0x000000000005be00       0x5b ./drivers/hd/lowLBA.o
 .rodata.str1.1
                0x000000000005be5b       0x42 ./drivers/hd/lowLBA.o
 *fill*         0x000000000005be9d        0x3 
 .rodata        0x000000000005bea0        0xf ./drivers/hd/lowLBA.o
 *fill*         0x000000000005beaf        0x1 
 .rodata.str1.4
                0x000000000005beb0       0xb3 ./drivers/hd/lowCHS.o
 .rodata.str1.1
                0x000000000005bf63       0x53 ./drivers/hd/lowCHS.o
 *fill*         0x000000000005bfb6        0x2 
 .rodata        0x000000000005bfb8        0xb ./drivers/hd/lowCHS.o
 .rodata.str1.1
                0x000000000005bfc3       0x2b ./drivers/hd/hdReset.o
 *fill*         0x000000000005bfee        0x2 
 .rodata        0x000000000005bff0       0x11 ./drivers/hd/hdReset.o
 .rodata.str1.1
                0x000000000005c001       0x1b ./drivers/hd/hdService.o
 .rodata.str1.4
                0x000000000005c01c       0xb6 ./drivers/hd/hdService.o
 *fill*         0x000000000005c0d2        0x2 
 .rodata        0x000000000005c0d4       0x29 ./drivers/hd/hdService.o
 .rodata.str1.1
                0x000000000005c0fd       0x4b ./drivers/hd/hd.o
 .rodata.str1.4
                0x000000000005c148       0x28 ./drivers/hd/hd.o
 .rodata        0x000000000005c170       0x14 ./drivers/hd/hd.o
 .rodata        0x000000000005c184       0x2b ./drivers/hd/cache/hdCacheEntry.o
 .rodata.str1.1
                0x000000000005c1af       0x46 ./drivers/hd/cache/hdCacheFlush.o
 *fill*         0x000000000005c1f5        0x3 
 .rodata        0x000000000005c1f8       0x11 ./drivers/hd/cache/hdCacheFlush.o
 .rodata.str1.1
                0x000000000005c209       0x10 ./drivers/hd/cache/hdCache.o
 *fill*         0x000000000005c219        0x3 
 .rodata.str1.4
                0x000000000005c21c       0x33 ./drivers/hd/cache/hdCache.o
 *fill*         0x000000000005c24f        0x1 
 .rodata        0x000000000005c250        0xc ./drivers/hd/cache/hdCache.o
 .rodata.str1.4
                0x000000000005c25c       0x95 ./drivers/hd/cache/hdCacheAccess.o
 .rodata.str1.1
                0x000000000005c2f1       0x14 ./drivers/hd/cache/hdCacheAccess.o
 *fill*         0x000000000005c305        0x3 
 .rodata        0x000000000005c308       0x1b ./drivers/hd/cache/hdCacheAccess.o
 .rodata.str1.1
                0x000000000005c323       0x48 ./drivers/cmos/cmos.o
 .rodata.str1.1
                0x000000000005c36b       0x1e ./drivers/cmos/cmos_dev.o
 *fill*         0x000000000005c389        0x3 
 .rodata        0x000000000005c38c        0xe ./drivers/tcp/tcp.o
 .rodata.str1.1
                0x000000000005c39a       0x3a ./drivers/tcp/ts.o
 .rodata.str1.4
                0x000000000005c3d4      0x46c ./drivers/tcp/ts.o
 .rodata        0x000000000005c840       0x61 ./drivers/tcp/ts.o
 .rodata.str1.1
                0x000000000005c8a1       0x9b ./drivers/tcp/www_server.o
 .rodata.str1.4
                0x000000000005c93c       0x8f ./drivers/tcp/www_server.o
 *fill*         0x000000000005c9cb       0x15 
 .rodata        0x000000000005c9e0       0x34 ./drivers/tcp/www_server.o
 .rodata.str1.1
                0x000000000005ca14       0x1c ./drivers/tcp/ConnectHost.o
 .rodata.str1.4
                0x000000000005ca30       0x5b ./drivers/tcp/ConnectHost.o
 *fill*         0x000000000005ca8b        0x1 
 .rodata        0x000000000005ca8c        0xc ./drivers/tcp/ConnectHost.o
 .rodata.str1.1
                0x000000000005ca98       0xe9 ./drivers/tcp/PacketDump.o
 *fill*         0x000000000005cb81        0x3 
 .rodata.str1.4
                0x000000000005cb84       0xca ./drivers/tcp/PacketDump.o
 *fill*         0x000000000005cc4e        0x2 
 .rodata        0x000000000005cc50        0xb ./drivers/tcp/SendPacket.o
 .rodata.str1.1
                0x000000000005cc5b        0x8 ./drivers/tcp/tcpDev.o
 *fill*         0x000000000005cc63        0x1 
 .rodata.str1.4
                0x000000000005cc64       0x2b ./drivers/tcp/tcpDev.o
 *fill*         0x000000000005cc8f        0x1 
 .rodata        0x000000000005cc90        0xb ./drivers/tcp/tcpDev.o
 .rodata.str1.1
                0x000000000005cc9b       0x54 ./drivers/tcp/tcpMain.o
 *fill*         0x000000000005ccef        0x1 
 .rodata.str1.4
                0x000000000005ccf0      0x110 ./drivers/tcp/tcpMain.o
 .rodata        0x000000000005ce00        0xb ./drivers/tcp/tcpMain.o
 *fill*         0x000000000005ce0b        0x1 
 .rodata        0x000000000005ce0c        0xd ./drivers/tcp/ip.o
 *fill*         0x000000000005ce19        0x3 
 .rodata.str1.4
                0x000000000005ce1c      0x110 ./drivers/tcp/socket.o
 .rodata.str1.1
                0x000000000005cf2c       0x19 ./drivers/tcp/socket.o
 *fill*         0x000000000005cf45        0x3 
 .rodata        0x000000000005cf48       0x6c ./drivers/tcp/socket.o
 .rodata.str1.1
                0x000000000005cfb4        0x5 ./drivers/zero/zero.o
 *fill*         0x000000000005cfb9        0x3 
 .rodata.str1.4
                0x000000000005cfbc       0x37 ./drivers/zero/zero.o
 .rodata.str1.1
                0x000000000005cff3       0x22 ./core/statusline/statusline.o
 *fill*         0x000000000005d015        0x3 
 .rodata.str1.4
                0x000000000005d018       0x5a ./core/statusline/statusline.o
 *fill*         0x000000000005d072        0x2 
 .rodata        0x000000000005d074       0x12 ./core/statusline/statusline.o
 .rodata.str1.1
                0x000000000005d086        0x3 ./core/cp/centralprocessInit.o
 *fill*         0x000000000005d089        0x3 
 .rodata.str1.4
                0x000000000005d08c       0xf4 ./core/cp/exeidentificationmodule.o
 .rodata.str1.1
                0x000000000005d180       0x18 ./core/cp/exeidentificationmodule.o
 .rodata        0x000000000005d198       0x19 ./core/cp/exeidentificationmodule.o
 .rodata.str1.1
                0x000000000005d1b1       0x3e ./core/cp/centralprocess.o
 *fill*         0x000000000005d1ef        0x1 
 .rodata.str1.4
                0x000000000005d1f0      0x3b0 ./core/cp/centralprocess.o
 .rodata        0x000000000005d5a0       0x33 ./core/cp/centralprocess.o
 .rodata.str1.1
                0x000000000005d5d3       0x38 ./core/cp/reboot.o
 *fill*         0x000000000005d60b        0x1 
 .rodata.str1.4
                0x000000000005d60c      0x10b ./core/cp/reboot.o
 *fill*         0x000000000005d717        0x1 
 .rodata.str1.4
                0x000000000005d718       0x89 ./core/cp/panic.o
 .rodata.str1.1
                0x000000000005d7a1       0x14 ./core/cp/panic.o
 *fill*         0x000000000005d7b5        0x3 
 .rodata.str1.4
                0x000000000005d7b8       0x76 ./core/cp/LaunchApp.o
 .rodata.str1.1
                0x000000000005d82e       0x2d ./core/cp/LaunchApp.o
 *fill*         0x000000000005d85b        0x1 
 .rodata        0x000000000005d85c        0xc ./core/cp/LaunchApp.o
 .rodata.str1.4
                0x000000000005d868       0x36 ./core/cp/errors.o
 .rodata.str1.1
                0x000000000005d89e       0x50 ./core/cp/centralprocessMain.o
 *fill*         0x000000000005d8ee        0x2 
 .rodata.str1.4
                0x000000000005d8f0      0x188 ./core/cp/centralprocessMain.o
 .rodata        0x000000000005da78       0x27 ./core/cp/centralprocessMain.o
 .rodata.str1.1
                0x000000000005da9f       0x98 ./core/cp/gpf.o
 *fill*         0x000000000005db37        0x1 
 .rodata.str1.4
                0x000000000005db38      0x28a ./core/cp/gpf.o
 *fill*         0x000000000005ddc2        0x2 
 .rodata.str1.4
                0x000000000005ddc4       0x5f ./core/fixal/fixal.o
 .rodata.str1.1
                0x000000000005de23        0xa ./core/fixal/fixal.o
 *fill*         0x000000000005de2d        0x3 
 .rodata        0x000000000005de30       0x28 ./core/fixal/fixal.o
 .rodata.str1.1
                0x000000000005de58        0xc ./core/dataproc/gets.o
 .rodata.str1.4
                0x000000000005de64       0x6e ./core/dataproc/memcpy.o
 *fill*         0x000000000005ded2        0xe 
 .rodata        0x000000000005dee0      0x218 ./core/dataproc/floatconv.o
 .rodata.str1.1
                0x000000000005e0f8        0xf ./core/dataproc/floatconv.o
 *fill*         0x000000000005e107        0x1 
 .rodata.cst8   0x000000000005e108       0x50 ./core/dataproc/floatconv.o
 .rodata.cst4   0x000000000005e158       0x20 ./core/dataproc/floatconv.o
 .rodata.str1.1
                0x000000000005e178       0x5e ./core/dataproc/ctypefamily.o
 .rodata.str1.1
                0x000000000005e1d6        0x8 ./core/dataproc/sprintf.o
 *fill*         0x000000000005e1de        0x2 
 .rodata        0x000000000005e1e0       0xb0 ./core/dataproc/sprintf.o
 .rodata.str1.1
                0x000000000005e290        0x7 ./core/dataproc/printf.o
 *fill*         0x000000000005e297        0x1 
 .rodata        0x000000000005e298       0x60 ./core/dataproc/printf.o
 .rodata.str1.1
                0x000000000005e2f8        0x2 ./core/dataproc/sscanf.o
 *fill*         0x000000000005e2fa        0x2 
 .rodata        0x000000000005e2fc       0x58 ./core/dataproc/sscanf.o
 .rodata.str1.1
                0x000000000005e354       0x2c ./core/dataproc/string.o
 .rodata        0x000000000005e380       0xa8 ./core/dataproc/string.o
 .rodata.str1.4
                0x000000000005e428       0x37 ./core/dataproc/string.o
 *fill*         0x000000000005e45f        0x1 
 .rodata        0x000000000005e460        0x7 ./core/dataproc/strdup.o
 *fill*         0x000000000005e467        0x1 
 .rodata.cst4   0x000000000005e468        0x4 ./core/dataproc/cvt.o
 *fill*         0x000000000005e46c        0x4 
 .rodata.cst8   0x000000000005e470       0x10 ./core/dataproc/cvt.o
 .rodata.str1.1
                0x000000000005e480        0x7 ./core/dataproc/hexdump.o
 *fill*         0x000000000005e487        0x1 
 .rodata.str1.4
                0x000000000005e488       0x50 ./core/dataproc/hexdump.o
 .rodata.str1.1
                0x000000000005e4d8       0x10 ./core/chiplevel/postcommands.o
 .rodata.str1.4
                0x000000000005e4e8       0x57 ./core/chiplevel/pit.o
 *fill*         0x000000000005e53f        0x1 
 .rodata        0x000000000005e540       0x19 ./core/chiplevel/pit.o
 .rodata.str1.1
                0x000000000005e559       0xc0 ./core/chiplevel/tss.o
 *fill*         0x000000000005e619        0x3 
 .rodata.str1.4
                0x000000000005e61c       0x82 ./core/chiplevel/tss.o
 *fill*         0x000000000005e69e        0x2 
 .rodata        0x000000000005e6a0       0x28 ./core/chiplevel/tss.o
 .rodata.str1.1
                0x000000000005e6c8      0x14d ./core/chiplevel/llexception.o
 *fill*         0x000000000005e815        0x3 
 .rodata.str1.4
                0x000000000005e818       0x64 ./core/chiplevel/llexception.o
 .rodata.str1.1
                0x000000000005e87c       0x25 ./core/chiplevel/gdtmanipulation.o
 *fill*         0x000000000005e8a1        0x3 
 .rodata.str1.4
                0x000000000005e8a4       0x46 ./core/chiplevel/gdtmanipulation.o
 *fill*         0x000000000005e8ea        0x2 
 .rodata        0x000000000005e8ec       0x1d ./core/chiplevel/gdtmanipulation.o
 .rodata.str1.1
                0x000000000005e909       0x18 ./core/chiplevel/scs2.o
 *fill*         0x000000000005e921        0x3 
 .rodata        0x000000000005e924        0xe ./core/chiplevel/scs2.o
 *fill*         0x000000000005e932        0x2 
 .rodata        0x000000000005e934       0x10 ./core/chiplevel/intdb.o
 .rodata.str1.4
                0x000000000005e944       0x2f ./core/chiplevel/intgdt.o
 .rodata.str1.1
                0x000000000005e973      0x12f ./core/chiplevel/exception.o
 *fill*         0x000000000005eaa2        0x2 
 .rodata.str1.4
                0x000000000005eaa4       0x64 ./core/chiplevel/exception.o
 .rodata.str1.1
                0x000000000005eb08      0x18e ./core/chiplevel/int.o
 *fill*         0x000000000005ec96        0x2 
 .rodata.str1.4
                0x000000000005ec98      0x1a9 ./core/chiplevel/int.o
 *fill*         0x000000000005ee41        0x3 
 .rodata        0x000000000005ee44        0x9 ./core/chiplevel/int.o
 *fill*         0x000000000005ee4d        0x3 
 .rodata        0x000000000005ee50       0x16 ./core/chiplevel/coprocessor_not_found.o
 .rodata.str1.1
                0x000000000005ee66       0x58 ./core/chiplevel/logging.o
 *fill*         0x000000000005eebe        0x2 
 .rodata.str1.4
                0x000000000005eec0       0x60 ./core/chiplevel/logging.o
 .rodata        0x000000000005ef20       0x14 ./core/chiplevel/logging.o
 .rodata.str1.1
                0x000000000005ef34       0x23 ./core/chiplevel/ansiwin.o
 *fill*         0x000000000005ef57        0x1 
 .rodata.str1.4
                0x000000000005ef58       0x4c ./core/chiplevel/ansiwin.o
 .rodata.str1.1
                0x000000000005efa4       0x1c ./core/chiplevel/msgbox.o
 .rodata.str1.4
                0x000000000005efc0      0x1b0 ./core/chiplevel/msgbox.o
 .rodata        0x000000000005f170       0x40 ./core/chiplevel/msgbox.o
 .rodata.str1.1
                0x000000000005f1b0       0x27 ./core/chiplevel/scs.o
 *fill*         0x000000000005f1d7        0x1 
 .rodata.str1.4
                0x000000000005f1d8      0x103 ./core/chiplevel/scs.o
 *fill*         0x000000000005f2db        0x1 
 .rodata        0x000000000005f2dc       0xaf ./core/chiplevel/scs.o
 .rodata.str1.1
                0x000000000005f38b       0x37 ./core/chiplevel/system_call.o
 .rodata.str1.1
                0x000000000005f3c2        0x9 ./core/chiplevel/IdleThread.o
 .rodata.str1.1
                0x000000000005f3cb        0x7 ./core/chiplevel/exec.o
 *fill*         0x000000000005f3d2        0x2 
 .rodata        0x000000000005f3d4        0xa ./core/chiplevel/exec.o
 .rodata.str1.1
                0x000000000005f3de       0x1c ./core/chiplevel/dfunc.o
 *fill*         0x000000000005f3fa        0x2 
 .rodata        0x000000000005f3fc        0x7 ./core/chiplevel/dfunc.o
 .rodata.str1.1
                0x000000000005f403       0x72 ./core/environment/envint.o
 *fill*         0x000000000005f475        0x3 
 .rodata.str1.4
                0x000000000005f478       0x3b ./core/environment/envint.o
 .rodata.str1.1
                0x000000000005f4b3        0xb ./core/environment/env.o
 *fill*         0x000000000005f4be        0x2 
 .rodata        0x000000000005f4c0       0x1d ./core/environment/env.o
 .rodata.str1.1
                0x000000000005f4dd      0x121 ./core/threads/threads.o
 *fill*         0x000000000005f5fe        0x2 
 .rodata.str1.4
                0x000000000005f600      0x100 ./core/threads/threads.o
 .rodata        0x000000000005f700       0x95 ./core/threads/threads.o
 *fill*         0x000000000005f795        0x3 
 .rodata.str1.4
                0x000000000005f798       0x3a ./core/threads/threadSwitch.o
 *fill*         0x000000000005f7d2        0x2 
 .rodata        0x000000000005f7d4        0xc ./core/threads/threadSwitch.o
 .rodata.str1.1
                0x000000000005f7e0       0x12 ./core/hwdet/hwdet.o
 *fill*         0x000000000005f7f2        0x2 
 .rodata.str1.4
                0x000000000005f7f4       0x21 ./core/hwdet/hwdet.o
 *fill*         0x000000000005f815        0x3 
 .rodata        0x000000000005f818        0xb ./sh/plasma_app.o
 .rodata.str1.1
                0x000000000005f823       0x2f ./sh/debugapp.o
 *fill*         0x000000000005f852        0x2 
 .rodata.str1.4
                0x000000000005f854       0x38 ./sh/lsapp.o
 .rodata.str1.1
                0x000000000005f88c       0x28 ./sh/lsapp.o
 .rodata        0x000000000005f8b4        0x7 ./sh/lsapp.o
 .rodata.str1.1
                0x000000000005f8bb       0x1d ./sh/formatapp.o
 .rodata.str1.1
                0x000000000005f8d8       0xef ./sh/sh.o
 *fill*         0x000000000005f9c7        0x1 
 .rodata.str1.4
                0x000000000005f9c8      0x275 ./sh/sh.o
 *fill*         0x000000000005fc3d        0x3 
 .rodata        0x000000000005fc40       0xc0 ./sh/sh.o
 .rodata.str1.1
                0x000000000005fd00       0x15 ./sh/chdirapp.o
 *fill*         0x000000000005fd15        0x3 
 .rodata        0x000000000005fd18        0xd ./init/buffer.o
 .rodata.str1.1
                0x000000000005fd25        0x1 ./init/parse.o
 .rodata.str1.1
                0x000000000005fd26      0x269 ./init/initsystem.o
 *fill*         0x000000000005ff8f        0x1 
 .rodata.str1.4
                0x000000000005ff90      0x50a ./init/initsystem.o
 *fill*         0x000000000006049a        0x2 
 .rodata        0x000000000006049c        0xb ./init/initsystem.o
 .rodata.str1.1
                0x00000000000604a7       0x13 ./init/keropt.o
 .rodata.str1.1
                0x00000000000604ba       0x35 ./init/vesa.o
 *fill*         0x00000000000604ef        0x1 
 .rodata.str1.4
                0x00000000000604f0       0x23 ./init/vesa.o
 .rodata.str1.1
                0x0000000000060513        0x9 ./init/init.o
 .rodata        0x000000000006051c        0xb ./init/init.o
 *fill*         0x0000000000060527        0x1 
 .rodata.cst4   0x0000000000060528        0x8 ./init/init.o
 .rodata.cst8   0x0000000000060530        0x8 ./init/init.o
 .rodata.str1.1
                0x0000000000060538       0xb5 ./init/callapp.o
 *fill*         0x00000000000605ed        0x3 
 .rodata.str1.4
                0x00000000000605f0       0x43 ./init/callapp.o
 *fill*         0x0000000000060633        0x1 
 .rodata        0x0000000000060634        0xa ./init/callapp.o
 .rodata.str1.1
                0x000000000006063e       0x3d ./init/foo.o
 *fill*         0x000000000006067b        0x1 
 .rodata.str1.4
                0x000000000006067c       0x8e ./utils/mst.o
 .rodata.str1.1
                0x000000000006070a       0x3d ./utils/mst.o
 .rodata.str1.1
                0x0000000000060747       0x1d ./fs/fopen.o
 .rodata        0x0000000000060764        0x7 ./fs/fopen.o
 *fill*         0x000000000006076b        0x1 
 .rodata        0x000000000006076c        0x9 ./fs/fprintf.o
 .rodata.str1.1
                0x0000000000060775       0x3a ./fs/_close.o
 *fill*         0x00000000000607af        0x1 
 .rodata.str1.4
                0x00000000000607b0       0x27 ./fs/_write.o
 .rodata.str1.1
                0x00000000000607d7       0x64 ./fs/filedes.o
 *fill*         0x000000000006083b        0x1 
 .rodata        0x000000000006083c       0x19 ./fs/filedes.o
 .rodata.str1.1
                0x0000000000060855       0x19 ./fs/_mkdir.o
 *fill*         0x000000000006086e        0x2 
 .rodata        0x0000000000060870        0xc ./fs/_mkdir.o
 .rodata.str1.1
                0x000000000006087c       0x1f ./fs/_open.o
 *fill*         0x000000000006089b        0x1 
 .rodata        0x000000000006089c        0xb ./fs/_open.o
 .rodata.str1.1
                0x00000000000608a7       0x29 ./fs/_stat.o
 .rodata        0x00000000000608d0       0x24 ./fs/_stat.o
 .rodata.str1.1
                0x00000000000608f4       0x14 ./fs/filebuf.o
 .rodata        0x0000000000060908        0xe ./fs/filebuf.o
 .rodata.str1.1
                0x0000000000060916       0x14 ./fs/_read.o
 *fill*         0x000000000006092a        0x2 
 .rodata        0x000000000006092c        0xb ./fs/_read.o
 .rodata.str1.1
                0x0000000000060937       0x35 ./fs/api.o
 .rodata        0x000000000006096c        0x7 ./fs/fclose.o
 .rodata.str1.1
                0x0000000000060973        0x9 ./fs/file.o
 .rodata.str1.4
                0x000000000006097c       0x2a ./fs/file.o
 *fill*         0x00000000000609a6        0x2 
 .rodata        0x00000000000609a8       0x15 ./fs/file.o
 .rodata.str1.1
                0x00000000000609bd        0xb ./fs/tmpnam.o
 .rodata.str1.1
                0x00000000000609c8       0x15 ./fs/fat12/msdosio.o
 *fill*         0x00000000000609dd        0x3 
 .rodata.str1.4
                0x00000000000609e0       0x26 ./fs/fat12/msdosio.o
 *fill*         0x0000000000060a06        0x2 
 .rodata        0x0000000000060a08       0x3f ./fs/fat12/msdosio.o
 .rodata.str1.1
                0x0000000000060a47        0x3 ./fs/jtmfs/jtmfsPath.o
 *fill*         0x0000000000060a4a        0x2 
 .rodata.str1.4
                0x0000000000060a4c      0x107 ./fs/jtmfs/fslast.o
 *fill*         0x0000000000060b53        0x1 
 .rodata.str1.4
                0x0000000000060b54      0x106 ./fs/jtmfs/directfileaccess.o
 .rodata.str1.1
                0x0000000000060c5a       0xd9 ./fs/jtmfs/directfileaccess.o
 *fill*         0x0000000000060d33        0x1 
 .rodata        0x0000000000060d34       0x5b ./fs/jtmfs/directfileaccess.o
 .rodata.str1.1
                0x0000000000060d8f       0xfc ./fs/jtmfs/jtmfs.o
 *fill*         0x0000000000060e8b        0x1 
 .rodata.str1.4
                0x0000000000060e8c      0x49d ./fs/jtmfs/jtmfs.o
 *fill*         0x0000000000061329        0x3 
 .rodata        0x000000000006132c       0xff ./fs/jtmfs/jtmfs.o
 .rodata.str1.1
                0x000000000006142b       0x1c ./fs/jtmfs/fsfind.o
 *fill*         0x0000000000061447        0x1 
 .rodata        0x0000000000061448       0x10 ./fs/jtmfs/fsfind.o
 .rodata.str1.1
                0x0000000000061458       0x2b ./fs/jtmfs/dirdbWalk.o
 *fill*         0x0000000000061483        0x1 
 .rodata.str1.4
                0x0000000000061484       0x56 ./fs/jtmfs/dirdbWalk.o
 *fill*         0x00000000000614da        0x2 
 .rodata        0x00000000000614dc       0x43 ./fs/jtmfs/dirdbWalk.o
 *fill*         0x000000000006151f        0x1 
 .rodata.str1.4
                0x0000000000061520      0x11d ./fs/jtmfs/flexCorruption.o
 .rodata.str1.1
                0x000000000006163d       0x41 ./fs/jtmfs/flexCorruption.o
 .rodata.str1.1
                0x000000000006167e        0x8 ./fs/jtmfs/dirdbFind.o
 *fill*         0x0000000000061686        0x2 
 .rodata.str1.4
                0x0000000000061688       0x69 ./fs/jtmfs/dirdbFind.o
 *fill*         0x00000000000616f1        0x3 
 .rodata        0x00000000000616f4       0x11 ./fs/jtmfs/dirdbFind.o
 .rodata.str1.1
                0x0000000000061705       0x9d ./fs/jtmfs/createfat.o
 *fill*         0x00000000000617a2        0x2 
 .rodata.str1.4
                0x00000000000617a4      0x352 ./fs/jtmfs/createfat.o
 *fill*         0x0000000000061af6        0x2 
 .rodata        0x0000000000061af8       0x85 ./fs/jtmfs/createfat.o
 .rodata.str1.1
                0x0000000000061b7d       0xe0 ./fs/jtmfs/fsadd.o
 *fill*         0x0000000000061c5d        0x3 
 .rodata.str1.4
                0x0000000000061c60       0x8a ./fs/jtmfs/fsadd.o
 *fill*         0x0000000000061cea        0x2 
 .rodata        0x0000000000061cec       0x12 ./fs/jtmfs/fsadd.o
 .rodata.str1.1
                0x0000000000061cfe      0x1e9 ./fs/jtmfs/flexFat.o
 *fill*         0x0000000000061ee7        0x1 
 .rodata.str1.4
                0x0000000000061ee8      0x273 ./fs/jtmfs/flexFat.o
 *fill*         0x000000000006215b        0x1 
 .rodata        0x000000000006215c       0xd4 ./fs/jtmfs/flexFat.o
 .rodata.str1.1
                0x0000000000062230       0xbc ./fs/jtmfs/dirdbAccess.o
 .rodata.str1.4
                0x00000000000622ec       0x91 ./fs/jtmfs/dirdbAccess.o
 *fill*         0x000000000006237d        0x3 
 .rodata        0x0000000000062380       0xdf ./fs/jtmfs/dirdbAccess.o
 .rodata.str1.1
                0x000000000006245f       0x40 ./fs/jtmfs/format.o
 *fill*         0x000000000006249f        0x1 
 .rodata.str1.4
                0x00000000000624a0       0x93 ./fs/jtmfs/format.o
 *fill*         0x0000000000062533        0x1 
 .rodata        0x0000000000062534       0x12 ./fs/jtmfs/format.o
 .rodata.str1.1
                0x0000000000062546       0x4e ./fs/jtmfs/dirdbInformation.o
 .rodata.str1.4
                0x0000000000062594       0x76 ./fs/jtmfs/dirdbInformation.o
 .rodata.str1.1
                0x000000000006260a       0x48 ./fs/jtmfs/WriteChain.o
 *fill*         0x0000000000062652        0x2 
 .rodata.str1.4
                0x0000000000062654      0x13b ./fs/jtmfs/WriteChain.o
 *fill*         0x000000000006278f        0x1 
 .rodata        0x0000000000062790       0x2d ./fs/jtmfs/WriteChain.o
 .rodata.str1.1
                0x00000000000627bd       0x7e ./fs/jtmfs/writeDir.o
 *fill*         0x000000000006283b        0x1 
 .rodata.str1.4
                0x000000000006283c      0x141 ./fs/jtmfs/writeDir.o
 *fill*         0x000000000006297d        0x3 
 .rodata        0x0000000000062980        0x9 ./fs/jtmfs/writeDir.o
 .rodata.str1.1
                0x0000000000062989       0xa0 ./fs/jtmfs/fsdos.o
 *fill*         0x0000000000062a29        0x3 
 .rodata        0x0000000000062a2c       0x20 ./fs/jtmfs/fsdos.o
 .rodata        0x0000000000062a4c        0xb ./fs/jtmfs/dirdb.o
 .rodata.str1.1
                0x0000000000062a57        0x5 ./fs/jtmfs/jtmfsAccessInit.o
 .rodata        0x0000000000062a5c       0x10 ./fs/jtmfs/jtmfsAccessInit.o
 .rodata.str1.1
                0x0000000000062a6c        0x4 ./fs/jtmfs/root.o
 .rodata.str1.1
                0x0000000000062a70       0x43 ./fs/jtmfs/fswalk.o
 *fill*         0x0000000000062ab3        0x1 
 .rodata.str1.4
                0x0000000000062ab4       0x4b ./fs/jtmfs/fswalk.o
 *fill*         0x0000000000062aff        0x1 
 .rodata        0x0000000000062b00        0xd ./fs/jtmfs/fswalk.o
 .rodata.str1.1
                0x0000000000062b0d      0x1cb ./fs/jtmfs/jtmfsAccess.o
 .rodata.str1.4
                0x0000000000062cd8      0x345 ./fs/jtmfs/jtmfsAccess.o
 *fill*         0x000000000006301d        0x3 
 .rodata        0x0000000000063020      0x131 ./fs/jtmfs/jtmfsAccess.o
 *fill*         0x0000000000063151        0x3 
 .rodata.str1.4
                0x0000000000063154       0x4d ./fs/jtmfs/fsaddblocks.o
 .rodata.str1.1
                0x00000000000631a1       0x34 ./fs/jtmfs/fsaddblocks.o
 *fill*         0x00000000000631d5        0x3 
 .rodata        0x00000000000631d8       0x1b ./fs/jtmfs/fsaddblocks.o
 .rodata.str1.1
                0x00000000000631f3       0x17 ./fs/jtmfs/ReadChain.o
 *fill*         0x000000000006320a        0x2 
 .rodata.str1.4
                0x000000000006320c       0x27 ./fs/jtmfs/ReadChain.o
 *fill*         0x0000000000063233        0x1 
 .rodata        0x0000000000063234       0x14 ./fs/jtmfs/ReadChain.o
 .rodata.str1.1
                0x0000000000063248      0x13a ./fs/jtmfs/jtmfat.o
 *fill*         0x0000000000063382        0x2 
 .rodata.str1.4
                0x0000000000063384      0x2c9 ./fs/jtmfs/jtmfat.o
 *fill*         0x000000000006364d        0x3 
 .rodata        0x0000000000063650      0x105 ./fs/jtmfs/jtmfat.o
 *fill*         0x0000000000063755        0x3 
 .rodata.str1.4
                0x0000000000063758       0x2e ./fs/jtmfs/dir.o
 .rodata.str1.1
                0x0000000000063786       0x28 ./fs/jtmfs/dir.o
 *fill*         0x00000000000637ae        0x2 
 .rodata        0x00000000000637b0        0xa ./fs/jtmfs/dir.o
                0x00000000000637ba                etext = .
                0x00000000000637ba                _etext = .

.text.startup   0x00000000000637c0      0x1ef
 .text.startup  0x00000000000637c0      0x1ef ./utils/mst.o
                0x00000000000637c0                main

.note.gnu.property
                0x00000000000639b0     0x1b04
 .note.gnu.property
                0x00000000000639b0       0x1c init/start.o
 .note.gnu.property
                0x00000000000639cc       0x1c ./mm/mmBit.o
 .note.gnu.property
                0x00000000000639e8       0x1c ./mm/scanmem.o
 .note.gnu.property
                0x0000000000063a04       0x1c ./mm/mmEntry.o
 .note.gnu.property
                0x0000000000063a20       0x1c ./mm/mm.o
 .note.gnu.property
                0x0000000000063a3c       0x1c ./mm/paging.o
 .note.gnu.property
                0x0000000000063a58       0x1c ./mm/mmTest.o
 .note.gnu.property
                0x0000000000063a74       0x1c ./mm/mmAlloc.o
 .note.gnu.property
                0x0000000000063a90       0x1c ./drivers/driver_diskchange.o
 .note.gnu.property
                0x0000000000063aac       0x1c ./drivers/driver_lock.o
 .note.gnu.property
                0x0000000000063ac8       0x1c ./drivers/driver_flush.o
 .note.gnu.property
                0x0000000000063ae4       0x1c ./drivers/driver_remdevcall.o
 .note.gnu.property
                0x0000000000063b00       0x1c ./drivers/driver_api_devcall.o
 .note.gnu.property
                0x0000000000063b1c       0x1c ./drivers/driver_api.o
 .note.gnu.property
                0x0000000000063b38       0x1c ./drivers/driver_rw.o
 .note.gnu.property
                0x0000000000063b54       0x1c ./drivers/driver_init.o
 .note.gnu.property
                0x0000000000063b70       0x1c ./drivers/driver_sys.o
 .note.gnu.property
                0x0000000000063b8c       0x1c ./drivers/driver_BlockCache.o
 .note.gnu.property
                0x0000000000063ba8       0x1c ./drivers/partsup/partsup.o
 .note.gnu.property
                0x0000000000063bc4       0x1c ./drivers/keyboard/keyb.o
 .note.gnu.property
                0x0000000000063be0       0x1c ./drivers/keyboard/scanasc.o
 .note.gnu.property
                0x0000000000063bfc       0x1c ./drivers/lpt/lpt.o
 .note.gnu.property
                0x0000000000063c18       0x1c ./drivers/ega/ega.o
 .note.gnu.property
                0x0000000000063c34       0x1c ./drivers/ega/ega_ansi.o
 .note.gnu.property
                0x0000000000063c50       0x1c ./drivers/audio/audio.o
 .note.gnu.property
                0x0000000000063c6c       0x1c ./drivers/floppy/fdc_dev2.o
 .note.gnu.property
                0x0000000000063c88       0x1c ./drivers/floppy/fdcCache.o
 .note.gnu.property
                0x0000000000063ca4       0x1c ./drivers/floppy/fdc.o
 .note.gnu.property
                0x0000000000063cc0       0x1c ./drivers/floppy/fdcser.o
 .note.gnu.property
                0x0000000000063cdc       0x1c ./drivers/floppy/fdc_dev.o
 .note.gnu.property
                0x0000000000063cf8       0x1c ./drivers/slip/slipKernelMain.o
 .note.gnu.property
                0x0000000000063d14       0x1c ./drivers/slip/slipDev.o
 .note.gnu.property
                0x0000000000063d30       0x1c ./drivers/slip/slipLogin.o
 .note.gnu.property
                0x0000000000063d4c       0x1c ./drivers/slip/slipService.o
 .note.gnu.property
                0x0000000000063d68       0x1c ./drivers/slip/slipConfig.o
 .note.gnu.property
                0x0000000000063d84       0x1c ./drivers/slip/slipStack.o
 .note.gnu.property
                0x0000000000063da0       0x1c ./drivers/slip/slip.o
 .note.gnu.property
                0x0000000000063dbc       0x1c ./drivers/term/term.o
 .note.gnu.property
                0x0000000000063dd8       0x1c ./drivers/null/null.o
 .note.gnu.property
                0x0000000000063df4       0x1c ./drivers/mouse/SerialMouseDev.o
 .note.gnu.property
                0x0000000000063e10       0x1c ./drivers/mouse/ps2mouse.o
 .note.gnu.property
                0x0000000000063e2c       0x1c ./drivers/mouse/SerialMouse.o
 .note.gnu.property
                0x0000000000063e48       0x1c ./drivers/mouse/mouse.o
 .note.gnu.property
                0x0000000000063e64       0x1c ./drivers/pci/pci.o
 .note.gnu.property
                0x0000000000063e80       0x1c ./drivers/vmware/vmware.o
 .note.gnu.property
                0x0000000000063e9c       0x1c ./drivers/vga/sysvga.o
 .note.gnu.property
                0x0000000000063eb8       0x1c ./drivers/vga/vga.o
 .note.gnu.property
                0x0000000000063ed4       0x1c ./drivers/vga/sysgfx.o
 .note.gnu.property
                0x0000000000063ef0       0x1c ./drivers/alt/alt.o
 .note.gnu.property
                0x0000000000063f0c       0x1c ./drivers/serial/serial_dev.o
 .note.gnu.property
                0x0000000000063f28       0x1c ./drivers/serial/serial.o
 .note.gnu.property
                0x0000000000063f44       0x1c ./drivers/gus/gus.o
 .note.gnu.property
                0x0000000000063f60       0x1c ./drivers/sb/sb_dev.o
 .note.gnu.property
                0x0000000000063f7c       0x1c ./drivers/sb/sb.o
 .note.gnu.property
                0x0000000000063f98       0x1c ./drivers/ramdisk/ramser.o
 .note.gnu.property
                0x0000000000063fb4       0x1c ./drivers/ramdisk/ramdisk.o
 .note.gnu.property
                0x0000000000063fd0       0x1c ./drivers/hd/hdDetect.o
 .note.gnu.property
                0x0000000000063fec       0x1c ./drivers/hd/hdDev.o
 .note.gnu.property
                0x0000000000064008       0x1c ./drivers/hd/hdMisc.o
 .note.gnu.property
                0x0000000000064024       0x1c ./drivers/hd/hdBlockRW.o
 .note.gnu.property
                0x0000000000064040       0x1c ./drivers/hd/hdRW.o
 .note.gnu.property
                0x000000000006405c       0x1c ./drivers/hd/hdIRQ.o
 .note.gnu.property
                0x0000000000064078       0x1c ./drivers/hd/lowLBA.o
 .note.gnu.property
                0x0000000000064094       0x1c ./drivers/hd/lowCHS.o
 .note.gnu.property
                0x00000000000640b0       0x1c ./drivers/hd/hdReset.o
 .note.gnu.property
                0x00000000000640cc       0x1c ./drivers/hd/hdService.o
 .note.gnu.property
                0x00000000000640e8       0x1c ./drivers/hd/chs.o
 .note.gnu.property
                0x0000000000064104       0x1c ./drivers/hd/hd.o
 .note.gnu.property
                0x0000000000064120       0x1c ./drivers/hd/cache/hdCacheEntry.o
 .note.gnu.property
                0x000000000006413c       0x1c ./drivers/hd/cache/hdCacheFlush.o
 .note.gnu.property
                0x0000000000064158       0x1c ./drivers/hd/cache/hdCache.o
 .note.gnu.property
                0x0000000000064174       0x1c ./drivers/hd/cache/hdCacheAccess.o
 .note.gnu.property
                0x0000000000064190       0x1c ./drivers/cmos/cmos.o
 .note.gnu.property
                0x00000000000641ac       0x1c ./drivers/cmos/rtc.o
 .note.gnu.property
                0x00000000000641c8       0x1c ./drivers/cmos/cmos_dev.o
 .note.gnu.property
                0x00000000000641e4       0x1c ./drivers/tcp/tcp.o
 .note.gnu.property
                0x0000000000064200       0x1c ./drivers/tcp/ts.o
 .note.gnu.property
                0x000000000006421c       0x1c ./drivers/tcp/www_server.o
 .note.gnu.property
                0x0000000000064238       0x1c ./drivers/tcp/ConnectHost.o
 .note.gnu.property
                0x0000000000064254       0x1c ./drivers/tcp/PacketDump.o
 .note.gnu.property
                0x0000000000064270       0x1c ./drivers/tcp/rawpacket.o
 .note.gnu.property
                0x000000000006428c       0x1c ./drivers/tcp/SendPacket.o
 .note.gnu.property
                0x00000000000642a8       0x1c ./drivers/tcp/tcpConfig.o
 .note.gnu.property
                0x00000000000642c4       0x1c ./drivers/tcp/tcpDev.o
 .note.gnu.property
                0x00000000000642e0       0x1c ./drivers/tcp/icmp.o
 .note.gnu.property
                0x00000000000642fc       0x1c ./drivers/tcp/tcpMain.o
 .note.gnu.property
                0x0000000000064318       0x1c ./drivers/tcp/tcpService.o
 .note.gnu.property
                0x0000000000064334       0x1c ./drivers/tcp/ip.o
 .note.gnu.property
                0x0000000000064350       0x1c ./drivers/tcp/tcpchksum.o
 .note.gnu.property
                0x000000000006436c       0x1c ./drivers/tcp/socket.o
 .note.gnu.property
                0x0000000000064388       0x1c ./drivers/zero/zero.o
 .note.gnu.property
                0x00000000000643a4       0x1c ./core/speaker/speaker.o
 .note.gnu.property
                0x00000000000643c0       0x1c ./core/dispadmin/dispadmin.o
 .note.gnu.property
                0x00000000000643dc       0x1c ./core/statusline/statusline.o
 .note.gnu.property
                0x00000000000643f8       0x1c ./core/cp/centralprocessInit.o
 .note.gnu.property
                0x0000000000064414       0x1c ./core/cp/exeidentificationmodule.o
 .note.gnu.property
                0x0000000000064430       0x1c ./core/cp/centralprocess.o
 .note.gnu.property
                0x000000000006444c       0x1c ./core/cp/reboot.o
 .note.gnu.property
                0x0000000000064468       0x1c ./core/cp/panic.o
 .note.gnu.property
                0x0000000000064484       0x1c ./core/cp/LaunchApp.o
 .note.gnu.property
                0x00000000000644a0       0x1c ./core/cp/scheduler.o
 .note.gnu.property
                0x00000000000644bc       0x1c ./core/cp/errors.o
 .note.gnu.property
                0x00000000000644d8       0x1c ./core/cp/centralprocessMain.o
 .note.gnu.property
                0x00000000000644f4       0x1c ./core/cp/gpf.o
 .note.gnu.property
                0x0000000000064510       0x1c ./core/speed/speed.o
 .note.gnu.property
                0x000000000006452c       0x1c ./core/random/random.o
 .note.gnu.property
                0x0000000000064548       0x1c ./core/fixal/fixal.o
 .note.gnu.property
                0x0000000000064564       0x1c ./core/dataproc/gets.o
 .note.gnu.property
                0x0000000000064580       0x1c ./core/dataproc/memcpy.o
 .note.gnu.property
                0x000000000006459c       0x1c ./core/dataproc/strchr.o
 .note.gnu.property
                0x00000000000645b8       0x1c ./core/dataproc/floorl.o
 .note.gnu.property
                0x00000000000645d4       0x1c ./core/dataproc/floatconv.o
 .note.gnu.property
                0x00000000000645f0       0x1c ./core/dataproc/ctypefamily.o
 .note.gnu.property
                0x000000000006460c       0x1c ./core/dataproc/sprintf.o
 .note.gnu.property
                0x0000000000064628       0x1c ./core/dataproc/strtok_r.o
 .note.gnu.property
                0x0000000000064644       0x1c ./core/dataproc/modf.o
 .note.gnu.property
                0x0000000000064660       0x1c ./core/dataproc/printf.o
 .note.gnu.property
                0x000000000006467c       0x1c ./core/dataproc/strncat.o
 .note.gnu.property
                0x0000000000064698       0x1c ./core/dataproc/strcspn.o
 .note.gnu.property
                0x00000000000646b4       0x1c ./core/dataproc/sscanf.o
 .note.gnu.property
                0x00000000000646d0       0x1c ./core/dataproc/string.o
 .note.gnu.property
                0x00000000000646ec       0x1c ./core/dataproc/floor.o
 .note.gnu.property
                0x0000000000064708       0x1c ./core/dataproc/strtok.o
 .note.gnu.property
                0x0000000000064724       0x1c ./core/dataproc/strdup.o
 .note.gnu.property
                0x0000000000064740       0x1c ./core/dataproc/strspn.o
 .note.gnu.property
                0x000000000006475c       0x1c ./core/dataproc/cvt.o
 .note.gnu.property
                0x0000000000064778       0x1c ./core/dataproc/hexdump.o
 .note.gnu.property
                0x0000000000064794       0x1c ./core/useradmin/useradmin.o
 .note.gnu.property
                0x00000000000647b0       0x1c ./core/chiplevel/postcommands.o
 .note.gnu.property
                0x00000000000647cc       0x1c ./core/chiplevel/pit.o
 .note.gnu.property
                0x00000000000647e8       0x1c ./core/chiplevel/tss.o
 .note.gnu.property
                0x0000000000064804       0x1c ./core/chiplevel/llexception.o
 .note.gnu.property
                0x0000000000064820       0x1c ./core/chiplevel/gdtmanipulation.o
 .note.gnu.property
                0x000000000006483c       0x1c ./core/chiplevel/scs2.o
 .note.gnu.property
                0x0000000000064858       0x1c ./core/chiplevel/corruption.o
 .note.gnu.property
                0x0000000000064874       0x1c ./core/chiplevel/stack.o
 .note.gnu.property
                0x0000000000064890       0x1c ./core/chiplevel/lock.o
 .note.gnu.property
                0x00000000000648ac       0x1c ./core/chiplevel/debug.o
 .note.gnu.property
                0x00000000000648c8       0x1c ./core/chiplevel/intdb.o
 .note.gnu.property
                0x00000000000648e4       0x1c ./core/chiplevel/intgdt.o
 .note.gnu.property
                0x0000000000064900       0x1c ./core/chiplevel/exception.o
 .note.gnu.property
                0x000000000006491c       0x1c ./core/chiplevel/delay.o
 .note.gnu.property
                0x0000000000064938       0x1c ./core/chiplevel/int.o
 .note.gnu.property
                0x0000000000064954       0x1c ./core/chiplevel/coprocessor_not_found.o
 .note.gnu.property
                0x0000000000064970       0x1c ./core/chiplevel/logging.o
 .note.gnu.property
                0x000000000006498c       0x1c ./core/chiplevel/ansiwin.o
 .note.gnu.property
                0x00000000000649a8       0x1c ./core/chiplevel/io.o
 .note.gnu.property
                0x00000000000649c4       0x1c ./core/chiplevel/msgbox.o
 .note.gnu.property
                0x00000000000649e0       0x1c ./core/chiplevel/dma.o
 .note.gnu.property
                0x00000000000649fc       0x1c ./core/chiplevel/scs.o
 .note.gnu.property
                0x0000000000064a18       0x1c ./core/chiplevel/system_call.o
 .note.gnu.property
                0x0000000000064a34       0x1c ./core/chiplevel/IdleThread.o
 .note.gnu.property
                0x0000000000064a50       0x1c ./core/chiplevel/exec.o
 .note.gnu.property
                0x0000000000064a6c       0x1c ./core/chiplevel/dfunc.o
 .note.gnu.property
                0x0000000000064a88       0x1c ./core/chiplevel/scs_devices.o
 .note.gnu.property
                0x0000000000064aa4       0x1c ./core/environment/envint.o
 .note.gnu.property
                0x0000000000064ac0       0x1c ./core/environment/env.o
 .note.gnu.property
                0x0000000000064adc       0x1c ./core/threads/threads.o
 .note.gnu.property
                0x0000000000064af8       0x1c ./core/threads/threads_db.o
 .note.gnu.property
                0x0000000000064b14       0x1c ./core/threads/threadSwitch.o
 .note.gnu.property
                0x0000000000064b30       0x1c ./core/hwdet/hwdet.o
 .note.gnu.property
                0x0000000000064b4c       0x1c ./sh/plasma_app.o
 .note.gnu.property
                0x0000000000064b68       0x1c ./sh/debugapp.o
 .note.gnu.property
                0x0000000000064b84       0x1c ./sh/lsapp.o
 .note.gnu.property
                0x0000000000064ba0       0x1c ./sh/getopt.o
 .note.gnu.property
                0x0000000000064bbc       0x1c ./sh/formatapp.o
 .note.gnu.property
                0x0000000000064bd8       0x1c ./sh/sh.o
 .note.gnu.property
                0x0000000000064bf4       0x1c ./sh/chdirapp.o
 .note.gnu.property
                0x0000000000064c10       0x1c ./init/buffer.o
 .note.gnu.property
                0x0000000000064c2c       0x1c ./init/sysglvar.o
 .note.gnu.property
                0x0000000000064c48       0x1c ./init/parse.o
 .note.gnu.property
                0x0000000000064c64       0x1c ./init/sysapp.o
 .note.gnu.property
                0x0000000000064c80       0x1c ./init/initsystem.o
 .note.gnu.property
                0x0000000000064c9c       0x1c ./init/keropt.o
 .note.gnu.property
                0x0000000000064cb8       0x1c ./init/vesa.o
 .note.gnu.property
                0x0000000000064cd4       0x1c ./init/init.o
 .note.gnu.property
                0x0000000000064cf0       0x1c ./init/errno.o
 .note.gnu.property
                0x0000000000064d0c       0x1c ./init/callapp.o
 .note.gnu.property
                0x0000000000064d28       0x1c ./init/biosfunc.o
 .note.gnu.property
                0x0000000000064d44       0x1c ./init/system.o
 .note.gnu.property
                0x0000000000064d60       0x1c ./init/foo.o
 .note.gnu.property
                0x0000000000064d7c       0x1c ./init/test.o
 .note.gnu.property
                0x0000000000064d98       0x1c ./init/sysmisc.o
 .note.gnu.property
                0x0000000000064db4       0x1c ./init/xml/XML.o
 .note.gnu.property
                0x0000000000064dd0       0x1c ./utils/mst.o
 .note.gnu.property
                0x0000000000064dec       0x1c ./fs/fgetsize.o
 .note.gnu.property
                0x0000000000064e08       0x1c ./fs/feof.o
 .note.gnu.property
                0x0000000000064e24       0x1c ./fs/link.o
 .note.gnu.property
                0x0000000000064e40       0x1c ./fs/fopen.o
 .note.gnu.property
                0x0000000000064e5c       0x1c ./fs/_virtualfilesystem_devcall.o
 .note.gnu.property
                0x0000000000064e78       0x1c ./fs/freopen.o
 .note.gnu.property
                0x0000000000064e94       0x1c ./fs/fprintf.o
 .note.gnu.property
                0x0000000000064eb0       0x1c ./fs/ftell.o
 .note.gnu.property
                0x0000000000064ecc       0x1c ./fs/_close.o
 .note.gnu.property
                0x0000000000064ee8       0x1c ./fs/_write.o
 .note.gnu.property
                0x0000000000064f04       0x1c ./fs/filedes.o
 .note.gnu.property
                0x0000000000064f20       0x1c ./fs/_mkdir.o
 .note.gnu.property
                0x0000000000064f3c       0x1c ./fs/_lseek.o
 .note.gnu.property
                0x0000000000064f58       0x1c ./fs/_fgetsize.o
 .note.gnu.property
                0x0000000000064f74       0x1c ./fs/stat.o
 .note.gnu.property
                0x0000000000064f90       0x1c ./fs/_opensocket.o
 .note.gnu.property
                0x0000000000064fac       0x1c ./fs/_open.o
 .note.gnu.property
                0x0000000000064fc8       0x1c ./fs/_stat.o
 .note.gnu.property
                0x0000000000064fe4       0x1c ./fs/filebuf.o
 .note.gnu.property
                0x0000000000065000       0x1c ./fs/_read.o
 .note.gnu.property
                0x000000000006501c       0x1c ./fs/fseek.o
 .note.gnu.property
                0x0000000000065038       0x1c ./fs/api.o
 .note.gnu.property
                0x0000000000065054       0x1c ./fs/fflush.o
 .note.gnu.property
                0x0000000000065070       0x1c ./fs/fsetsize.o
 .note.gnu.property
                0x000000000006508c       0x1c ./fs/fclose.o
 .note.gnu.property
                0x00000000000650a8       0x1c ./fs/file.o
 .note.gnu.property
                0x00000000000650c4       0x1c ./fs/tmpnam.o
 .note.gnu.property
                0x00000000000650e0       0x1c ./fs/filedir.o
 .note.gnu.property
                0x00000000000650fc       0x1c ./fs/_chdir.o
 .note.gnu.property
                0x0000000000065118       0x1c ./fs/filedesbuf.o
 .note.gnu.property
                0x0000000000065134       0x1c ./fs/fat12/msdosio.o
 .note.gnu.property
                0x0000000000065150       0x1c ./fs/jtmfs/jtmfsPath.o
 .note.gnu.property
                0x000000000006516c       0x1c ./fs/jtmfs/fslast.o
 .note.gnu.property
                0x0000000000065188       0x1c ./fs/jtmfs/directfileaccess.o
 .note.gnu.property
                0x00000000000651a4       0x1c ./fs/jtmfs/fname_translation.o
 .note.gnu.property
                0x00000000000651c0       0x1c ./fs/jtmfs/isJTMFS.o
 .note.gnu.property
                0x00000000000651dc       0x1c ./fs/jtmfs/jtmfs.o
 .note.gnu.property
                0x00000000000651f8       0x1c ./fs/jtmfs/fsfind.o
 .note.gnu.property
                0x0000000000065214       0x1c ./fs/jtmfs/dirdbWalk.o
 .note.gnu.property
                0x0000000000065230       0x1c ./fs/jtmfs/flexCorruption.o
 .note.gnu.property
                0x000000000006524c       0x1c ./fs/jtmfs/fsdev.o
 .note.gnu.property
                0x0000000000065268       0x1c ./fs/jtmfs/dirdbFind.o
 .note.gnu.property
                0x0000000000065284       0x1c ./fs/jtmfs/mount.o
 .note.gnu.property
                0x00000000000652a0       0x1c ./fs/jtmfs/createfat.o
 .note.gnu.property
                0x00000000000652bc       0x1c ./fs/jtmfs/fsadd.o
 .note.gnu.property
                0x00000000000652d8       0x1c ./fs/jtmfs/flexFat.o
 .note.gnu.property
                0x00000000000652f4       0x1c ./fs/jtmfs/dirdbAccess.o
 .note.gnu.property
                0x0000000000065310       0x1c ./fs/jtmfs/format.o
 .note.gnu.property
                0x000000000006532c       0x1c ./fs/jtmfs/dirdbInformation.o
 .note.gnu.property
                0x0000000000065348       0x1c ./fs/jtmfs/WriteChain.o
 .note.gnu.property
                0x0000000000065364       0x1c ./fs/jtmfs/writeDir.o
 .note.gnu.property
                0x0000000000065380       0x1c ./fs/jtmfs/fsdos.o
 .note.gnu.property
                0x000000000006539c       0x1c ./fs/jtmfs/dirdb.o
 .note.gnu.property
                0x00000000000653b8       0x1c ./fs/jtmfs/jtmfsAccessInit.o
 .note.gnu.property
                0x00000000000653d4       0x1c ./fs/jtmfs/root.o
 .note.gnu.property
                0x00000000000653f0       0x1c ./fs/jtmfs/fswalk.o
 .note.gnu.property
                0x000000000006540c       0x1c ./fs/jtmfs/jtmfsAccess.o
 .note.gnu.property
                0x0000000000065428       0x1c ./fs/jtmfs/fsaddblocks.o
 .note.gnu.property
                0x0000000000065444       0x1c ./fs/jtmfs/ReadChain.o
 .note.gnu.property
                0x0000000000065460       0x1c ./fs/jtmfs/jtmfat.o
 .note.gnu.property
                0x000000000006547c       0x1c ./fs/jtmfs/dir.o
 .note.gnu.property
                0x0000000000065498       0x1c ./fs/jtmfs/dirdbCorruption.o

.eh_frame       0x00000000000654b4     0xe724
 .eh_frame      0x00000000000654b4       0x34 init/start.o
 .eh_frame      0x00000000000654e8      0x130 ./mm/mmBit.o
 .eh_frame      0x0000000000065618       0x98 ./mm/scanmem.o
 .eh_frame      0x00000000000656b0      0x150 ./mm/mmEntry.o
 .eh_frame      0x0000000000065800       0xc4 ./mm/mm.o
 .eh_frame      0x00000000000658c4      0x2e8 ./mm/paging.o
 .eh_frame      0x0000000000065bac       0x58 ./mm/mmTest.o
 .eh_frame      0x0000000000065c04      0x2c0 ./mm/mmAlloc.o
 .eh_frame      0x0000000000065ec4       0x54 ./drivers/driver_diskchange.o
 .eh_frame      0x0000000000065f18       0xb4 ./drivers/driver_lock.o
 .eh_frame      0x0000000000065fcc       0xc8 ./drivers/driver_flush.o
 .eh_frame      0x0000000000066094       0x6c ./drivers/driver_remdevcall.o
 .eh_frame      0x0000000000066100       0x60 ./drivers/driver_api_devcall.o
 .eh_frame      0x0000000000066160      0x120 ./drivers/driver_api.o
 .eh_frame      0x0000000000066280      0x208 ./drivers/driver_rw.o
 .eh_frame      0x0000000000066488       0x2c ./drivers/driver_init.o
 .eh_frame      0x00000000000664b4      0x2cc ./drivers/driver_sys.o
 .eh_frame      0x0000000000066780       0x2c ./drivers/driver_BlockCache.o
 .eh_frame      0x00000000000667ac      0x138 ./drivers/partsup/partsup.o
 .eh_frame      0x00000000000668e4      0x368 ./drivers/keyboard/keyb.o
 .eh_frame      0x0000000000066c4c       0xe8 ./drivers/keyboard/scanasc.o
 .eh_frame      0x0000000000066d34      0x174 ./drivers/lpt/lpt.o
 .eh_frame      0x0000000000066ea8      0x100 ./drivers/ega/ega.o
 .eh_frame      0x0000000000066fa8      0x118 ./drivers/ega/ega_ansi.o
 .eh_frame      0x00000000000670c0       0x78 ./drivers/audio/audio.o
 .eh_frame      0x0000000000067138       0x70 ./drivers/floppy/fdc_dev2.o
 .eh_frame      0x00000000000671a8       0xd4 ./drivers/floppy/fdcCache.o
 .eh_frame      0x000000000006727c      0x474 ./drivers/floppy/fdc.o
 .eh_frame      0x00000000000676f0       0xd4 ./drivers/floppy/fdcser.o
 .eh_frame      0x00000000000677c4       0x68 ./drivers/floppy/fdc_dev.o
 .eh_frame      0x000000000006782c       0x3c ./drivers/slip/slipKernelMain.o
 .eh_frame      0x0000000000067868       0x54 ./drivers/slip/slipDev.o
 .eh_frame      0x00000000000678bc       0x50 ./drivers/slip/slipLogin.o
 .eh_frame      0x000000000006790c       0x58 ./drivers/slip/slipService.o
 .eh_frame      0x0000000000067964       0x2c ./drivers/slip/slipConfig.o
 .eh_frame      0x0000000000067990      0x1f4 ./drivers/slip/slipStack.o
 .eh_frame      0x0000000000067b84      0x100 ./drivers/slip/slip.o
 .eh_frame      0x0000000000067c84      0xd30 ./drivers/term/term.o
 .eh_frame      0x00000000000689b4       0x64 ./drivers/null/null.o
 .eh_frame      0x0000000000068a18       0x64 ./drivers/mouse/SerialMouseDev.o
 .eh_frame      0x0000000000068a7c      0x274 ./drivers/mouse/ps2mouse.o
 .eh_frame      0x0000000000068cf0       0xe8 ./drivers/mouse/SerialMouse.o
 .eh_frame      0x0000000000068dd8       0xb8 ./drivers/mouse/mouse.o
 .eh_frame      0x0000000000068e90       0x9c ./drivers/pci/pci.o
 .eh_frame      0x0000000000068f2c       0x44 ./drivers/vmware/vmware.o
 .eh_frame      0x0000000000068f70       0xf0 ./drivers/vga/sysvga.o
 .eh_frame      0x0000000000069060      0x1bc ./drivers/vga/vga.o
 .eh_frame      0x000000000006921c      0x110 ./drivers/vga/sysgfx.o
 .eh_frame      0x000000000006932c       0x84 ./drivers/alt/alt.o
 .eh_frame      0x00000000000693b0       0x4c ./drivers/serial/serial_dev.o
 .eh_frame      0x00000000000693fc      0x39c ./drivers/serial/serial.o
 .eh_frame      0x0000000000069798      0x3d0 ./drivers/gus/gus.o
 .eh_frame      0x0000000000069b68       0x44 ./drivers/sb/sb_dev.o
 .eh_frame      0x0000000000069bac      0x53c ./drivers/sb/sb.o
 .eh_frame      0x000000000006a0e8       0xd0 ./drivers/ramdisk/ramser.o
 .eh_frame      0x000000000006a1b8      0x1ec ./drivers/ramdisk/ramdisk.o
 .eh_frame      0x000000000006a3a4      0x154 ./drivers/hd/hdDetect.o
 .eh_frame      0x000000000006a4f8       0x58 ./drivers/hd/hdDev.o
 .eh_frame      0x000000000006a550      0x14c ./drivers/hd/hdMisc.o
 .eh_frame      0x000000000006a69c       0x40 ./drivers/hd/hdBlockRW.o
 .eh_frame      0x000000000006a6dc       0x50 ./drivers/hd/hdRW.o
 .eh_frame      0x000000000006a72c       0x5c ./drivers/hd/hdIRQ.o
 .eh_frame      0x000000000006a788       0xec ./drivers/hd/lowLBA.o
 .eh_frame      0x000000000006a874       0xf0 ./drivers/hd/lowCHS.o
 .eh_frame      0x000000000006a964       0x50 ./drivers/hd/hdReset.o
 .eh_frame      0x000000000006a9b4      0x124 ./drivers/hd/hdService.o
 .eh_frame      0x000000000006aad8       0x48 ./drivers/hd/chs.o
 .eh_frame      0x000000000006ab20       0x7c ./drivers/hd/hd.o
 .eh_frame      0x000000000006ab9c       0xc0 ./drivers/hd/cache/hdCacheEntry.o
 .eh_frame      0x000000000006ac5c       0x50 ./drivers/hd/cache/hdCacheFlush.o
 .eh_frame      0x000000000006acac       0x4c ./drivers/hd/cache/hdCache.o
 .eh_frame      0x000000000006acf8       0xd0 ./drivers/hd/cache/hdCacheAccess.o
 .eh_frame      0x000000000006adc8       0x68 ./drivers/cmos/cmos.o
 .eh_frame      0x000000000006ae30      0x154 ./drivers/cmos/rtc.o
 .eh_frame      0x000000000006af84       0x4c ./drivers/cmos/cmos_dev.o
 .eh_frame      0x000000000006afd0       0x80 ./drivers/tcp/tcp.o
 .eh_frame      0x000000000006b050      0x1a8 ./drivers/tcp/ts.o
 .eh_frame      0x000000000006b1f8       0xbc ./drivers/tcp/www_server.o
 .eh_frame      0x000000000006b2b4       0x3c ./drivers/tcp/ConnectHost.o
 .eh_frame      0x000000000006b2f0       0xa8 ./drivers/tcp/PacketDump.o
 .eh_frame      0x000000000006b398       0x48 ./drivers/tcp/rawpacket.o
 .eh_frame      0x000000000006b3e0       0x40 ./drivers/tcp/SendPacket.o
 .eh_frame      0x000000000006b420       0x2c ./drivers/tcp/tcpConfig.o
 .eh_frame      0x000000000006b44c       0x70 ./drivers/tcp/tcpDev.o
 .eh_frame      0x000000000006b4bc       0x68 ./drivers/tcp/icmp.o
 .eh_frame      0x000000000006b524       0x40 ./drivers/tcp/tcpMain.o
 .eh_frame      0x000000000006b564       0x5c ./drivers/tcp/tcpService.o
 .eh_frame      0x000000000006b5c0       0xac ./drivers/tcp/ip.o
 .eh_frame      0x000000000006b66c       0x6c ./drivers/tcp/tcpchksum.o
 .eh_frame      0x000000000006b6d8      0x24c ./drivers/tcp/socket.o
 .eh_frame      0x000000000006b924       0x64 ./drivers/zero/zero.o
 .eh_frame      0x000000000006b988       0x38 ./core/speaker/speaker.o
 .eh_frame      0x000000000006b9c0       0x7c ./core/dispadmin/dispadmin.o
 .eh_frame      0x000000000006ba3c       0x7c ./core/statusline/statusline.o
 .eh_frame      0x000000000006bab8       0x30 ./core/cp/centralprocessInit.o
 .eh_frame      0x000000000006bae8      0x11c ./core/cp/exeidentificationmodule.o
 .eh_frame      0x000000000006bc04      0x218 ./core/cp/centralprocess.o
 .eh_frame      0x000000000006be1c       0x6c ./core/cp/reboot.o
 .eh_frame      0x000000000006be88       0x5c ./core/cp/panic.o
 .eh_frame      0x000000000006bee4      0x100 ./core/cp/LaunchApp.o
 .eh_frame      0x000000000006bfe4       0x74 ./core/cp/scheduler.o
 .eh_frame      0x000000000006c058       0x3c ./core/cp/errors.o
 .eh_frame      0x000000000006c094       0x4c ./core/cp/centralprocessMain.o
 .eh_frame      0x000000000006c0e0      0x1c4 ./core/cp/gpf.o
 .eh_frame      0x000000000006c2a4       0x2c ./core/speed/speed.o
 .eh_frame      0x000000000006c2d0       0x84 ./core/random/random.o
 .eh_frame      0x000000000006c354       0xc0 ./core/fixal/fixal.o
 .eh_frame      0x000000000006c414       0x50 ./core/dataproc/gets.o
 .eh_frame      0x000000000006c464       0xf0 ./core/dataproc/memcpy.o
 .eh_frame      0x000000000006c554       0x64 ./core/dataproc/strchr.o
 .eh_frame      0x000000000006c5b8       0x30 ./core/dataproc/floorl.o
 .eh_frame      0x000000000006c5e8      0x3a4 ./core/dataproc/floatconv.o
 .eh_frame      0x000000000006c98c      0x1ac ./core/dataproc/ctypefamily.o
 .eh_frame      0x000000000006cb38       0xb0 ./core/dataproc/sprintf.o
 .eh_frame      0x000000000006cbe8       0x40 ./core/dataproc/strtok_r.o
 .eh_frame      0x000000000006cc28       0x30 ./core/dataproc/modf.o
 .eh_frame      0x000000000006cc58       0x70 ./core/dataproc/printf.o
 .eh_frame      0x000000000006ccc8       0x64 ./core/dataproc/strncat.o
 .eh_frame      0x000000000006cd2c       0x50 ./core/dataproc/strcspn.o
 .eh_frame      0x000000000006cd7c       0x70 ./core/dataproc/sscanf.o
 .eh_frame      0x000000000006cdec      0x624 ./core/dataproc/string.o
 .eh_frame      0x000000000006d410       0x30 ./core/dataproc/floor.o
 .eh_frame      0x000000000006d440       0x64 ./core/dataproc/strtok.o
 .eh_frame      0x000000000006d4a4       0x38 ./core/dataproc/strdup.o
 .eh_frame      0x000000000006d4dc       0x50 ./core/dataproc/strspn.o
 .eh_frame      0x000000000006d52c       0xac ./core/dataproc/cvt.o
 .eh_frame      0x000000000006d5d8       0x6c ./core/dataproc/hexdump.o
 .eh_frame      0x000000000006d644       0x48 ./core/useradmin/useradmin.o
 .eh_frame      0x000000000006d68c       0x88 ./core/chiplevel/postcommands.o
 .eh_frame      0x000000000006d714      0x188 ./core/chiplevel/pit.o
 .eh_frame      0x000000000006d89c      0x1c0 ./core/chiplevel/tss.o
 .eh_frame      0x000000000006da5c      0x230 ./core/chiplevel/llexception.o
 .eh_frame      0x000000000006dc8c      0x108 ./core/chiplevel/gdtmanipulation.o
 .eh_frame      0x000000000006dd94       0xe8 ./core/chiplevel/scs2.o
 .eh_frame      0x000000000006de7c       0x40 ./core/chiplevel/corruption.o
 .eh_frame      0x000000000006debc       0x44 ./core/chiplevel/stack.o
 .eh_frame      0x000000000006df00       0x54 ./core/chiplevel/lock.o
 .eh_frame      0x000000000006df54       0x5c ./core/chiplevel/debug.o
 .eh_frame      0x000000000006dfb0       0x88 ./core/chiplevel/intdb.o
 .eh_frame      0x000000000006e038       0x78 ./core/chiplevel/intgdt.o
 .eh_frame      0x000000000006e0b0      0x1cc ./core/chiplevel/exception.o
 .eh_frame      0x000000000006e27c       0x44 ./core/chiplevel/delay.o
 .eh_frame      0x000000000006e2c0      0x1a4 ./core/chiplevel/int.o
 .eh_frame      0x000000000006e464       0x3c ./core/chiplevel/coprocessor_not_found.o
 .eh_frame      0x000000000006e4a0       0xa4 ./core/chiplevel/logging.o
 .eh_frame      0x000000000006e544       0xa4 ./core/chiplevel/ansiwin.o
 .eh_frame      0x000000000006e5e8       0x68 ./core/chiplevel/io.o
 .eh_frame      0x000000000006e650      0x180 ./core/chiplevel/msgbox.o
 .eh_frame      0x000000000006e7d0       0x5c ./core/chiplevel/dma.o
 .eh_frame      0x000000000006e82c      0xa50 ./core/chiplevel/scs.o
 .eh_frame      0x000000000006f27c       0x38 ./core/chiplevel/system_call.o
 .eh_frame      0x000000000006f2b4       0x4c ./core/chiplevel/IdleThread.o
 .eh_frame      0x000000000006f300       0x58 ./core/chiplevel/exec.o
 .eh_frame      0x000000000006f358       0x6c ./core/chiplevel/dfunc.o
 .eh_frame      0x000000000006f3c4       0x70 ./core/chiplevel/scs_devices.o
 .eh_frame      0x000000000006f434       0x5c ./core/environment/envint.o
 .eh_frame      0x000000000006f490      0x11c ./core/environment/env.o
 .eh_frame      0x000000000006f5ac      0x8ec ./core/threads/threads.o
 .eh_frame      0x000000000006fe98       0x74 ./core/threads/threadSwitch.o
 .eh_frame      0x000000000006ff0c       0x4c ./core/hwdet/hwdet.o
 .eh_frame      0x000000000006ff58       0x4c ./sh/plasma_app.o
 .eh_frame      0x000000000006ffa4       0x38 ./sh/debugapp.o
 .eh_frame      0x000000000006ffdc       0x84 ./sh/lsapp.o
 .eh_frame      0x0000000000070060       0x2c ./sh/getopt.o
 .eh_frame      0x000000000007008c       0x38 ./sh/formatapp.o
 .eh_frame      0x00000000000700c4       0xbc ./sh/sh.o
 .eh_frame      0x0000000000070180       0x38 ./sh/chdirapp.o
 .eh_frame      0x00000000000701b8      0x1ec ./init/buffer.o
 .eh_frame      0x00000000000703a4       0x70 ./init/parse.o
 .eh_frame      0x0000000000070414       0x48 ./init/initsystem.o
 .eh_frame      0x000000000007045c       0x88 ./init/vesa.o
 .eh_frame      0x00000000000704e4       0xcc ./init/init.o
 .eh_frame      0x00000000000705b0       0xd4 ./init/callapp.o
 .eh_frame      0x0000000000070684       0x40 ./init/biosfunc.o
 .eh_frame      0x00000000000706c4       0x44 ./init/foo.o
 .eh_frame      0x0000000000070708       0x40 ./init/test.o
 .eh_frame      0x0000000000070748       0x2c ./init/sysmisc.o
 .eh_frame      0x0000000000070774       0x30 ./init/xml/XML.o
 .eh_frame      0x00000000000707a4       0x48 ./utils/mst.o
 .eh_frame      0x00000000000707ec       0x40 ./fs/fgetsize.o
 .eh_frame      0x000000000007082c       0x2c ./fs/feof.o
 .eh_frame      0x0000000000070858       0x2c ./fs/link.o
 .eh_frame      0x0000000000070884       0x5c ./fs/fopen.o
 .eh_frame      0x00000000000708e0       0x2c ./fs/_virtualfilesystem_devcall.o
 .eh_frame      0x000000000007090c       0x3c ./fs/freopen.o
 .eh_frame      0x0000000000070948       0x60 ./fs/fprintf.o
 .eh_frame      0x00000000000709a8       0x2c ./fs/ftell.o
 .eh_frame      0x00000000000709d4       0x5c ./fs/_close.o
 .eh_frame      0x0000000000070a30       0x44 ./fs/_write.o
 .eh_frame      0x0000000000070a74      0x180 ./fs/filedes.o
 .eh_frame      0x0000000000070bf4       0x40 ./fs/_mkdir.o
 .eh_frame      0x0000000000070c34       0x40 ./fs/_lseek.o
 .eh_frame      0x0000000000070c74       0x4c ./fs/_fgetsize.o
 .eh_frame      0x0000000000070cc0       0x54 ./fs/stat.o
 .eh_frame      0x0000000000070d14       0xd4 ./fs/_opensocket.o
 .eh_frame      0x0000000000070de8       0x88 ./fs/_open.o
 .eh_frame      0x0000000000070e70       0xa4 ./fs/_stat.o
 .eh_frame      0x0000000000070f14      0x134 ./fs/filebuf.o
 .eh_frame      0x0000000000071048       0x4c ./fs/_read.o
 .eh_frame      0x0000000000071094       0x54 ./fs/fseek.o
 .eh_frame      0x00000000000710e8      0x204 ./fs/api.o
 .eh_frame      0x00000000000712ec       0x38 ./fs/fflush.o
 .eh_frame      0x0000000000071324       0x30 ./fs/fsetsize.o
 .eh_frame      0x0000000000071354       0x3c ./fs/fclose.o
 .eh_frame      0x0000000000071390      0x170 ./fs/file.o
 .eh_frame      0x0000000000071500       0x38 ./fs/tmpnam.o
 .eh_frame      0x0000000000071538       0x40 ./fs/_chdir.o
 .eh_frame      0x0000000000071578       0x2c ./fs/filedesbuf.o
 .eh_frame      0x00000000000715a4      0x110 ./fs/fat12/msdosio.o
 .eh_frame      0x00000000000716b4       0x98 ./fs/jtmfs/jtmfsPath.o
 .eh_frame      0x000000000007174c       0x44 ./fs/jtmfs/fslast.o
 .eh_frame      0x0000000000071790      0x4b0 ./fs/jtmfs/directfileaccess.o
 .eh_frame      0x0000000000071c40       0x58 ./fs/jtmfs/fname_translation.o
 .eh_frame      0x0000000000071c98       0x4c ./fs/jtmfs/isJTMFS.o
 .eh_frame      0x0000000000071ce4      0x4e8 ./fs/jtmfs/jtmfs.o
 .eh_frame      0x00000000000721cc       0xf0 ./fs/jtmfs/fsfind.o
 .eh_frame      0x00000000000722bc       0xd8 ./fs/jtmfs/dirdbWalk.o
 .eh_frame      0x0000000000072394       0x84 ./fs/jtmfs/flexCorruption.o
 .eh_frame      0x0000000000072418       0xec ./fs/jtmfs/dirdbFind.o
 .eh_frame      0x0000000000072504       0x58 ./fs/jtmfs/mount.o
 .eh_frame      0x000000000007255c      0x274 ./fs/jtmfs/createfat.o
 .eh_frame      0x00000000000727d0       0xa8 ./fs/jtmfs/fsadd.o
 .eh_frame      0x0000000000072878      0x378 ./fs/jtmfs/flexFat.o
 .eh_frame      0x0000000000072bf0      0x2e4 ./fs/jtmfs/dirdbAccess.o
 .eh_frame      0x0000000000072ed4       0x40 ./fs/jtmfs/format.o
 .eh_frame      0x0000000000072f14       0x58 ./fs/jtmfs/dirdbInformation.o
 .eh_frame      0x0000000000072f6c       0xb4 ./fs/jtmfs/WriteChain.o
 .eh_frame      0x0000000000073020       0x64 ./fs/jtmfs/writeDir.o
 .eh_frame      0x0000000000073084       0xac ./fs/jtmfs/fsdos.o
 .eh_frame      0x0000000000073130       0x78 ./fs/jtmfs/dirdb.o
 .eh_frame      0x00000000000731a8       0x30 ./fs/jtmfs/jtmfsAccessInit.o
 .eh_frame      0x00000000000731d8       0x70 ./fs/jtmfs/root.o
 .eh_frame      0x0000000000073248       0x90 ./fs/jtmfs/fswalk.o
 .eh_frame      0x00000000000732d8      0x44c ./fs/jtmfs/jtmfsAccess.o
 .eh_frame      0x0000000000073724       0x54 ./fs/jtmfs/fsaddblocks.o
 .eh_frame      0x0000000000073778       0x88 ./fs/jtmfs/ReadChain.o
 .eh_frame      0x0000000000073800      0x328 ./fs/jtmfs/jtmfat.o
 .eh_frame      0x0000000000073b28       0x84 ./fs/jtmfs/dir.o
 .eh_frame      0x0000000000073bac       0x2c ./fs/jtmfs/dirdbCorruption.o

.data           0x0000000000073bd8     0x40f8
 *(.data)
 .data          0x0000000000073bd8        0x0 init/start.o
 .data          0x0000000000073bd8       0x10 ./mm/mmBit.o
                0x0000000000073bd8                mmAndBits
                0x0000000000073be0                mmOrBits
 .data          0x0000000000073be8        0x0 ./mm/scanmem.o
 .data          0x0000000000073be8        0x0 ./mm/mmEntry.o
 .data          0x0000000000073be8        0x0 ./mm/mm.o
 .data          0x0000000000073be8        0x0 ./mm/paging.o
 .data          0x0000000000073be8        0x0 ./mm/mmTest.o
 .data          0x0000000000073be8        0x0 ./mm/mmAlloc.o
 .data          0x0000000000073be8        0x0 ./drivers/driver_diskchange.o
 .data          0x0000000000073be8        0x0 ./drivers/driver_lock.o
 .data          0x0000000000073be8        0x0 ./drivers/driver_flush.o
 .data          0x0000000000073be8        0x4 ./drivers/driver_remdevcall.o
                0x0000000000073be8                init_devq
 .data          0x0000000000073bec        0x0 ./drivers/driver_api_devcall.o
 *fill*         0x0000000000073bec       0x14 
 .data          0x0000000000073c00       0x94 ./drivers/driver_api.o
                0x0000000000073c00                devCmdNames
 .data          0x0000000000073c94        0x0 ./drivers/driver_rw.o
 .data          0x0000000000073c94        0x0 ./drivers/driver_init.o
 .data          0x0000000000073c94        0x0 ./drivers/driver_sys.o
 .data          0x0000000000073c94        0x0 ./drivers/driver_BlockCache.o
 .data          0x0000000000073c94        0x0 ./drivers/partsup/partsup.o
 .data          0x0000000000073c94        0x0 ./drivers/keyboard/keyb.o
 .data          0x0000000000073c94        0x0 ./drivers/keyboard/scanasc.o
 .data          0x0000000000073c94        0x8 ./drivers/lpt/lpt.o
                0x0000000000073c98                lpt_base
 .data          0x0000000000073c9c        0x0 ./drivers/ega/ega.o
 .data          0x0000000000073c9c        0x0 ./drivers/ega/ega_ansi.o
 .data          0x0000000000073c9c        0x0 ./drivers/audio/audio.o
 .data          0x0000000000073c9c        0x4 ./drivers/floppy/fdc_dev2.o
                0x0000000000073c9c                fdc_dev2_mounted
 .data          0x0000000000073ca0        0x0 ./drivers/floppy/fdcCache.o
 .data          0x0000000000073ca0        0x8 ./drivers/floppy/fdc.o
                0x0000000000073ca4                fdc_version
 .data          0x0000000000073ca8        0x0 ./drivers/floppy/fdcser.o
 .data          0x0000000000073ca8        0x4 ./drivers/floppy/fdc_dev.o
                0x0000000000073ca8                fdc_dev_mounted
 .data          0x0000000000073cac        0x0 ./drivers/slip/slipKernelMain.o
 .data          0x0000000000073cac        0x0 ./drivers/slip/slipDev.o
 .data          0x0000000000073cac        0x0 ./drivers/slip/slipLogin.o
 .data          0x0000000000073cac        0x0 ./drivers/slip/slipService.o
 *fill*         0x0000000000073cac       0x14 
 .data          0x0000000000073cc0       0xe8 ./drivers/slip/slipConfig.o
                0x0000000000073cc0                passwd
                0x0000000000073d40                user
                0x0000000000073da4                slip_debug
 .data          0x0000000000073da8        0x0 ./drivers/slip/slipStack.o
 .data          0x0000000000073da8        0x0 ./drivers/slip/slip.o
 .data          0x0000000000073da8        0x4 ./drivers/term/term.o
                0x0000000000073da8                saved_terminal
 .data          0x0000000000073dac        0x0 ./drivers/null/null.o
 .data          0x0000000000073dac        0x0 ./drivers/mouse/SerialMouseDev.o
 .data          0x0000000000073dac        0x0 ./drivers/mouse/ps2mouse.o
 .data          0x0000000000073dac        0x0 ./drivers/mouse/SerialMouse.o
 *fill*         0x0000000000073dac       0x14 
 .data          0x0000000000073dc0      0x420 ./drivers/mouse/mouse.o
                0x0000000000073dc0                mouse_arrow_length
                0x0000000000073de0                mouse_arrow
 .data          0x00000000000741e0        0x0 ./drivers/pci/pci.o
 .data          0x00000000000741e0        0x0 ./drivers/vmware/vmware.o
 .data          0x00000000000741e0     0x1000 ./drivers/vga/sysvga.o
 .data          0x00000000000751e0      0x760 ./drivers/vga/vga.o
                0x00000000000751e0                modeM
                0x0000000000075220                modeL
                0x0000000000075260                modeK
                0x00000000000752a0                modeJ
                0x00000000000752e0                modeC4
                0x0000000000075320                mode13h
                0x0000000000075360                mode12h
                0x00000000000753a0                mode11h
                0x00000000000753e0                mode10h
                0x0000000000075420                mode0Fh
                0x0000000000075460                mode0Eh
                0x00000000000754a0                mode0Dh
                0x00000000000754e0                mode07h
                0x0000000000075520                mode06h
                0x0000000000075560                mode04h
                0x00000000000755a0                mode03h
                0x00000000000755e0                mode00h
                0x0000000000075620                visible_before_switch
                0x0000000000075640                Pal
 .data          0x0000000000075940        0x4 ./drivers/vga/sysgfx.o
 .data          0x0000000000075944        0x0 ./drivers/alt/alt.o
 .data          0x0000000000075944        0x0 ./drivers/serial/serial_dev.o
 .data          0x0000000000075944        0x0 ./drivers/serial/serial.o
 .data          0x0000000000075944       0x10 ./drivers/gus/gus.o
                0x0000000000075948                gusIRQ
                0x000000000007594c                nr_voices
                0x0000000000075950                GUSBASE
 .data          0x0000000000075954        0x0 ./drivers/sb/sb_dev.o
 .data          0x0000000000075954        0x0 ./drivers/sb/sb.o
 .data          0x0000000000075954        0x0 ./drivers/ramdisk/ramser.o
 .data          0x0000000000075954        0x4 ./drivers/ramdisk/ramdisk.o
                0x0000000000075954                ram_dev_mounted
 .data          0x0000000000075958        0x0 ./drivers/hd/hdDetect.o
 .data          0x0000000000075958        0x4 ./drivers/hd/hdDev.o
                0x0000000000075958                dhd_dev_mounted
 .data          0x000000000007595c        0x0 ./drivers/hd/hdMisc.o
 .data          0x000000000007595c        0x0 ./drivers/hd/hdBlockRW.o
 .data          0x000000000007595c        0x0 ./drivers/hd/hdRW.o
 .data          0x000000000007595c        0x0 ./drivers/hd/hdIRQ.o
 .data          0x000000000007595c        0x0 ./drivers/hd/lowLBA.o
 .data          0x000000000007595c        0x0 ./drivers/hd/lowCHS.o
 .data          0x000000000007595c        0x0 ./drivers/hd/hdReset.o
 .data          0x000000000007595c        0x0 ./drivers/hd/hdService.o
 .data          0x000000000007595c        0x0 ./drivers/hd/chs.o
 .data          0x000000000007595c        0x0 ./drivers/hd/hd.o
 .data          0x000000000007595c        0x0 ./drivers/hd/cache/hdCacheEntry.o
 .data          0x000000000007595c        0x0 ./drivers/hd/cache/hdCacheFlush.o
 .data          0x000000000007595c        0x0 ./drivers/hd/cache/hdCache.o
 .data          0x000000000007595c        0x0 ./drivers/hd/cache/hdCacheAccess.o
 .data          0x000000000007595c        0x0 ./drivers/cmos/cmos.o
 .data          0x000000000007595c        0x0 ./drivers/cmos/rtc.o
 .data          0x000000000007595c        0x0 ./drivers/cmos/cmos_dev.o
 .data          0x000000000007595c        0x0 ./drivers/tcp/tcp.o
 .data          0x000000000007595c        0x8 ./drivers/tcp/ts.o
                0x000000000007595c                ts_debug
                0x0000000000075960                netDNR
 .data          0x0000000000075964        0x0 ./drivers/tcp/www_server.o
 .data          0x0000000000075964        0x0 ./drivers/tcp/ConnectHost.o
 .data          0x0000000000075964        0x0 ./drivers/tcp/PacketDump.o
 .data          0x0000000000075964        0x0 ./drivers/tcp/rawpacket.o
 .data          0x0000000000075964        0x0 ./drivers/tcp/SendPacket.o
 .data          0x0000000000075964       0x14 ./drivers/tcp/tcpConfig.o
                0x0000000000075964                ipma2
                0x0000000000075968                ipma1
                0x000000000007596c                ipma0
                0x0000000000075970                ipad3
                0x0000000000075974                ipad0
 .data          0x0000000000075978        0x0 ./drivers/tcp/tcpDev.o
 .data          0x0000000000075978        0x0 ./drivers/tcp/icmp.o
 .data          0x0000000000075978        0x0 ./drivers/tcp/tcpMain.o
 .data          0x0000000000075978        0x0 ./drivers/tcp/tcpService.o
 .data          0x0000000000075978        0x0 ./drivers/tcp/ip.o
 .data          0x0000000000075978        0x0 ./drivers/tcp/tcpchksum.o
 .data          0x0000000000075978        0x0 ./drivers/tcp/socket.o
 .data          0x0000000000075978        0x0 ./drivers/zero/zero.o
 .data          0x0000000000075978        0x0 ./core/speaker/speaker.o
 .data          0x0000000000075978        0x0 ./core/dispadmin/dispadmin.o
 .data          0x0000000000075978        0x0 ./core/statusline/statusline.o
 .data          0x0000000000075978        0x0 ./core/cp/centralprocessInit.o
 .data          0x0000000000075978        0x0 ./core/cp/exeidentificationmodule.o
 .data          0x0000000000075978        0x4 ./core/cp/centralprocess.o
                0x0000000000075978                turn
 .data          0x000000000007597c        0x0 ./core/cp/reboot.o
 .data          0x000000000007597c        0x0 ./core/cp/panic.o
 .data          0x000000000007597c        0x0 ./core/cp/LaunchApp.o
 .data          0x000000000007597c        0x0 ./core/cp/scheduler.o
 .data          0x000000000007597c        0x0 ./core/cp/errors.o
 .data          0x000000000007597c        0x0 ./core/cp/centralprocessMain.o
 .data          0x000000000007597c        0x0 ./core/cp/gpf.o
 .data          0x000000000007597c        0x0 ./core/speed/speed.o
 *fill*         0x000000000007597c        0x4 
 .data          0x0000000000075980       0x28 ./core/random/random.o
                0x0000000000075980                _libc_random
 .data          0x00000000000759a8        0x0 ./core/fixal/fixal.o
 .data          0x00000000000759a8        0x0 ./core/dataproc/gets.o
 .data          0x00000000000759a8        0x0 ./core/dataproc/memcpy.o
 .data          0x00000000000759a8        0x0 ./core/dataproc/strchr.o
 .data          0x00000000000759a8        0x0 ./core/dataproc/floorl.o
 .data          0x00000000000759a8        0x0 ./core/dataproc/floatconv.o
 .data          0x00000000000759a8        0x0 ./core/dataproc/ctypefamily.o
 .data          0x00000000000759a8        0x0 ./core/dataproc/sprintf.o
 .data          0x00000000000759a8        0x0 ./core/dataproc/strtok_r.o
 .data          0x00000000000759a8        0x0 ./core/dataproc/modf.o
 .data          0x00000000000759a8        0x0 ./core/dataproc/printf.o
 .data          0x00000000000759a8        0x0 ./core/dataproc/strncat.o
 .data          0x00000000000759a8        0x0 ./core/dataproc/strcspn.o
 .data          0x00000000000759a8        0x0 ./core/dataproc/sscanf.o
 .data          0x00000000000759a8        0x0 ./core/dataproc/string.o
 .data          0x00000000000759a8        0x0 ./core/dataproc/floor.o
 .data          0x00000000000759a8        0x0 ./core/dataproc/strtok.o
 .data          0x00000000000759a8        0x0 ./core/dataproc/strdup.o
 .data          0x00000000000759a8        0x0 ./core/dataproc/strspn.o
 .data          0x00000000000759a8        0x0 ./core/dataproc/cvt.o
 .data          0x00000000000759a8        0x0 ./core/dataproc/hexdump.o
 .data          0x00000000000759a8        0x0 ./core/useradmin/useradmin.o
 .data          0x00000000000759a8        0x0 ./core/chiplevel/postcommands.o
 .data          0x00000000000759a8        0x0 ./core/chiplevel/pit.o
 .data          0x00000000000759a8        0x0 ./core/chiplevel/tss.o
 .data          0x00000000000759a8        0x0 ./core/chiplevel/llexception.o
 .data          0x00000000000759a8        0x0 ./core/chiplevel/gdtmanipulation.o
 .data          0x00000000000759a8        0x0 ./core/chiplevel/scs2.o
 .data          0x00000000000759a8        0x0 ./core/chiplevel/corruption.o
 .data          0x00000000000759a8        0x0 ./core/chiplevel/stack.o
 .data          0x00000000000759a8        0x0 ./core/chiplevel/lock.o
 .data          0x00000000000759a8        0x0 ./core/chiplevel/debug.o
 .data          0x00000000000759a8        0x0 ./core/chiplevel/intdb.o
 .data          0x00000000000759a8        0x0 ./core/chiplevel/intgdt.o
 .data          0x00000000000759a8        0x0 ./core/chiplevel/exception.o
 .data          0x00000000000759a8        0x0 ./core/chiplevel/delay.o
 .data          0x00000000000759a8        0x2 ./core/chiplevel/int.o
                0x00000000000759a8                irq_mask
 *fill*         0x00000000000759aa        0x2 
 .data          0x00000000000759ac        0x4 ./core/chiplevel/coprocessor_not_found.o
 .data          0x00000000000759b0        0x0 ./core/chiplevel/logging.o
 .data          0x00000000000759b0        0x0 ./core/chiplevel/ansiwin.o
 .data          0x00000000000759b0        0x0 ./core/chiplevel/io.o
 .data          0x00000000000759b0        0x0 ./core/chiplevel/msgbox.o
 .data          0x00000000000759b0       0x30 ./core/chiplevel/dma.o
                0x00000000000759b0                CountPort
                0x00000000000759b8                AddrPort
                0x00000000000759c0                PagePort
                0x00000000000759c8                ClearReg
                0x00000000000759d0                ModeReg
                0x00000000000759d8                MaskReg
 .data          0x00000000000759e0      0xfc0 ./core/chiplevel/scs.o
                0x00000000000759e0                nr_scall_func
                0x0000000000075a00                scall_functions
 .data          0x00000000000769a0        0x0 ./core/chiplevel/system_call.o
 .data          0x00000000000769a0        0x0 ./core/chiplevel/IdleThread.o
 .data          0x00000000000769a0        0x0 ./core/chiplevel/exec.o
 .data          0x00000000000769a0        0x0 ./core/chiplevel/dfunc.o
 .data          0x00000000000769a0        0x0 ./core/chiplevel/scs_devices.o
 .data          0x00000000000769a0        0x0 ./core/environment/envint.o
 .data          0x00000000000769a0        0x0 ./core/environment/env.o
 .data          0x00000000000769a0        0x4 ./core/threads/threads.o
                0x00000000000769a0                threadMagic
 .data          0x00000000000769a4        0x0 ./core/threads/threads_db.o
 .data          0x00000000000769a4        0x8 ./core/threads/threadSwitch.o
                0x00000000000769a8                vmware_sleep_enabled
 .data          0x00000000000769ac        0x0 ./core/hwdet/hwdet.o
 .data          0x00000000000769ac        0x0 ./sh/plasma_app.o
 .data          0x00000000000769ac        0x0 ./sh/debugapp.o
 .data          0x00000000000769ac        0x0 ./sh/lsapp.o
 .data          0x00000000000769ac        0x0 ./sh/getopt.o
 .data          0x00000000000769ac        0x0 ./sh/formatapp.o
 .data          0x00000000000769ac        0x0 ./sh/sh.o
 .data          0x00000000000769ac        0x0 ./sh/chdirapp.o
 .data          0x00000000000769ac        0x0 ./init/buffer.o
 .data          0x00000000000769ac        0x0 ./init/sysglvar.o
 .data          0x00000000000769ac        0x0 ./init/parse.o
 .data          0x00000000000769ac        0x0 ./init/sysapp.o
 .data          0x00000000000769ac        0x0 ./init/initsystem.o
 .data          0x00000000000769ac       0x6c ./init/keropt.o
                0x00000000000769ac                DEFAULT_ROOT_DEVICE
                0x00000000000769b0                DEFAULT_USER_NAME
                0x00000000000769b4                DEFAULT_SYSTEM_NAME
                0x00000000000769b8                STATIC_APP_MEM_SIZE
                0x00000000000769bc                GOOD_TIMER_FREQUENCY
                0x00000000000769c0                FAIR_TIMER_FREQUENCY
                0x00000000000769c4                SAFE_TIMER_FREQUENCY
                0x00000000000769c8                RD_DEFAULT_SIZE
                0x00000000000769cc                RD_DEFAULT_BLOCK_SIZE
                0x00000000000769d0                DefaultSlipBPS
                0x00000000000769d4                LPT_ENABLED
                0x00000000000769d8                PCI_ENABLED
                0x00000000000769dc                SERIAL_ENABLED
                0x00000000000769e0                ENABLE_MOUSE_COM1
                0x00000000000769e4                sermouse_acceleration
                0x00000000000769e8                DISABLE_CACHE_AUTO_FLUSH
                0x00000000000769ec                PS2MOUSE_ENABLED
                0x00000000000769f0                RAMDISK_ENABLED
                0x00000000000769f4                INTHD_ENABLED
                0x00000000000769f8                FLOPPY_ENABLED
                0x00000000000769fc                KEYBOARD_ENABLED
                0x0000000000076a00                XON_KINIT
                0x0000000000076a04                XON_FATFLUSH
                0x0000000000076a08                XON_DEZOMBIE
                0x0000000000076a0c                XON_HWDET
                0x0000000000076a10                XON_FS
                0x0000000000076a14                DISABLE_BLOCK_CACHE
 *fill*         0x0000000000076a18        0x8 
 .data          0x0000000000076a20       0x30 ./init/vesa.o
                0x0000000000076a20                egapal
 *fill*         0x0000000000076a50       0x10 
 .data          0x0000000000076a60     0x11e4 ./init/init.o
                0x0000000000076a60                EGASAFE
                0x0000000000076a80                boot_bin
                0x0000000000077c40                boot_bin_length
 .data          0x0000000000077c44        0x0 ./init/errno.o
 .data          0x0000000000077c44        0x0 ./init/callapp.o
 .data          0x0000000000077c44        0x0 ./init/biosfunc.o
 .data          0x0000000000077c44        0x0 ./init/system.o
 .data          0x0000000000077c44        0x0 ./init/foo.o
 .data          0x0000000000077c44        0x0 ./init/test.o
 .data          0x0000000000077c44        0x0 ./init/sysmisc.o
 .data          0x0000000000077c44        0x0 ./init/xml/XML.o
 .data          0x0000000000077c44        0x0 ./utils/mst.o
 .data          0x0000000000077c44        0x0 ./fs/fgetsize.o
 .data          0x0000000000077c44        0x0 ./fs/feof.o
 .data          0x0000000000077c44        0x0 ./fs/link.o
 .data          0x0000000000077c44        0x0 ./fs/fopen.o
 .data          0x0000000000077c44        0x0 ./fs/_virtualfilesystem_devcall.o
 .data          0x0000000000077c44        0x0 ./fs/freopen.o
 .data          0x0000000000077c44        0x0 ./fs/fprintf.o
 .data          0x0000000000077c44        0x0 ./fs/ftell.o
 .data          0x0000000000077c44        0x0 ./fs/_close.o
 .data          0x0000000000077c44        0x0 ./fs/_write.o
 .data          0x0000000000077c44        0x0 ./fs/filedes.o
 .data          0x0000000000077c44        0x0 ./fs/_mkdir.o
 .data          0x0000000000077c44        0x0 ./fs/_lseek.o
 .data          0x0000000000077c44        0x0 ./fs/_fgetsize.o
 .data          0x0000000000077c44        0x0 ./fs/stat.o
 .data          0x0000000000077c44        0x0 ./fs/_opensocket.o
 .data          0x0000000000077c44        0x0 ./fs/_open.o
 .data          0x0000000000077c44        0x0 ./fs/_stat.o
 .data          0x0000000000077c44        0x0 ./fs/filebuf.o
 .data          0x0000000000077c44        0x0 ./fs/_read.o
 .data          0x0000000000077c44        0x0 ./fs/fseek.o
 *fill*         0x0000000000077c44       0x1c 
 .data          0x0000000000077c60       0x68 ./fs/api.o
                0x0000000000077c60                SysCWD
                0x0000000000077cc4                SysSearchPath
 .data          0x0000000000077cc8        0x0 ./fs/fflush.o
 .data          0x0000000000077cc8        0x0 ./fs/fsetsize.o
 .data          0x0000000000077cc8        0x0 ./fs/fclose.o
 .data          0x0000000000077cc8        0x0 ./fs/file.o
 .data          0x0000000000077cc8        0x0 ./fs/tmpnam.o
 .data          0x0000000000077cc8        0x0 ./fs/filedir.o
 .data          0x0000000000077cc8        0x0 ./fs/_chdir.o
 .data          0x0000000000077cc8        0x0 ./fs/filedesbuf.o
 .data          0x0000000000077cc8        0x0 ./fs/fat12/msdosio.o
 .data          0x0000000000077cc8        0x0 ./fs/jtmfs/jtmfsPath.o
 .data          0x0000000000077cc8        0x0 ./fs/jtmfs/fslast.o
 .data          0x0000000000077cc8        0x0 ./fs/jtmfs/directfileaccess.o
 .data          0x0000000000077cc8        0x0 ./fs/jtmfs/fname_translation.o
 .data          0x0000000000077cc8        0x0 ./fs/jtmfs/isJTMFS.o
 .data          0x0000000000077cc8        0x0 ./fs/jtmfs/jtmfs.o
 .data          0x0000000000077cc8        0x0 ./fs/jtmfs/fsfind.o
 .data          0x0000000000077cc8        0x0 ./fs/jtmfs/dirdbWalk.o
 .data          0x0000000000077cc8        0x0 ./fs/jtmfs/flexCorruption.o
 .data          0x0000000000077cc8        0x0 ./fs/jtmfs/fsdev.o
 .data          0x0000000000077cc8        0x0 ./fs/jtmfs/dirdbFind.o
 .data          0x0000000000077cc8        0x0 ./fs/jtmfs/mount.o
 .data          0x0000000000077cc8        0x0 ./fs/jtmfs/createfat.o
 .data          0x0000000000077cc8        0x0 ./fs/jtmfs/fsadd.o
 .data          0x0000000000077cc8        0x0 ./fs/jtmfs/flexFat.o
 .data          0x0000000000077cc8        0x0 ./fs/jtmfs/dirdbAccess.o
 .data          0x0000000000077cc8        0x0 ./fs/jtmfs/format.o
 .data          0x0000000000077cc8        0x0 ./fs/jtmfs/dirdbInformation.o
 .data          0x0000000000077cc8        0x4 ./fs/jtmfs/WriteChain.o
 .data          0x0000000000077ccc        0x0 ./fs/jtmfs/writeDir.o
 .data          0x0000000000077ccc        0x0 ./fs/jtmfs/fsdos.o
 .data          0x0000000000077ccc        0x0 ./fs/jtmfs/dirdb.o
 .data          0x0000000000077ccc        0x0 ./fs/jtmfs/jtmfsAccessInit.o
 .data          0x0000000000077ccc        0x0 ./fs/jtmfs/root.o
 .data          0x0000000000077ccc        0x0 ./fs/jtmfs/fswalk.o
 .data          0x0000000000077ccc        0x0 ./fs/jtmfs/jtmfsAccess.o
 .data          0x0000000000077ccc        0x0 ./fs/jtmfs/fsaddblocks.o
 .data          0x0000000000077ccc        0x0 ./fs/jtmfs/ReadChain.o
 .data          0x0000000000077ccc        0x4 ./fs/jtmfs/jtmfat.o
                0x0000000000077ccc                findfreeblock_last_block_nr
 .data          0x0000000000077cd0        0x0 ./fs/jtmfs/dir.o
 .data          0x0000000000077cd0        0x0 ./fs/jtmfs/dirdbCorruption.o
                0x0000000000077cd0                edata = .
                0x0000000000077cd0                _edata = .

.bss            0x0000000000100000    0x6f474
 *(COMMON)
 COMMON         0x0000000000100000      0xed8 init/start.o
                0x0000000000100000                stdout
                0x0000000000100020                fdelay
                0x0000000000100060                centralprocess
                0x0000000000100388                stdin
                0x00000000001003a0                thread_CPUspending
                0x00000000001007a0                threadtmp
                0x0000000000100ac0                stderr
                0x0000000000100ae0                thread_shell_pointer
                0x0000000000100ec8                fddb
                0x0000000000100ed0                keys
 COMMON         0x0000000000100ed8        0xc ./mm/scanmem.o
                0x0000000000100ed8                ms
 COMMON         0x0000000000100ee4       0x30 ./mm/mm.o
                0x0000000000100ee4                mm
                0x0000000000100ef8                MSTART
                0x0000000000100efc                phMEND
                0x0000000000100f00                REND
                0x0000000000100f04                MEND
                0x0000000000100f08                aldb
                0x0000000000100f0c                phMSTART
                0x0000000000100f10                phREND
 COMMON         0x0000000000100f14        0x8 ./mm/paging.o
                0x0000000000100f14                search_walk
                0x0000000000100f18                lin_walk
 *fill*         0x0000000000100f1c        0x4 
 COMMON         0x0000000000100f20      0x640 ./drivers/driver_remdevcall.o
                0x0000000000100f20                devq
 COMMON         0x0000000000101560        0x4 ./drivers/driver_sys.o
                0x0000000000101560                devdb
 COMMON         0x0000000000101564        0x8 ./drivers/driver_BlockCache.o
                0x0000000000101564                bc
 *fill*         0x000000000010156c       0x14 
 COMMON         0x0000000000101580       0x40 ./drivers/keyboard/keyb.o
                0x0000000000101580                kbstr
 COMMON         0x00000000001015c0       0x80 ./drivers/lpt/lpt.o
                0x00000000001015c0                lptport
 COMMON         0x0000000000101640       0x24 ./drivers/audio/audio.o
                0x0000000000101640                aud
                0x000000000010165c                audio
 *fill*         0x0000000000101664       0x1c 
 COMMON         0x0000000000101680       0x28 ./drivers/floppy/fdc.o
                0x0000000000101680                fdc
 *fill*         0x00000000001016a8       0x18 
 COMMON         0x00000000001016c0       0x2c ./drivers/slip/slipDev.o
                0x00000000001016c0                Client
 COMMON         0x00000000001016ec        0x8 ./drivers/slip/slipLogin.o
                0x00000000001016ec                slip
 *fill*         0x00000000001016f4        0xc 
 COMMON         0x0000000000101700      0x660 ./drivers/slip/slipStack.o
                0x0000000000101700                sp
                0x0000000000101720                sldb
 COMMON         0x0000000000101d60     0xac00 ./drivers/term/term.o
                0x0000000000101d60                screens
 COMMON         0x000000000010c960      0x2d0 ./drivers/mouse/ps2mouse.o
                0x000000000010c960                ps2mouse_first_time
                0x000000000010c980                mouse
 COMMON         0x000000000010cc30        0xc ./drivers/mouse/SerialMouse.o
                0x000000000010cc30                MouseThread
 COMMON         0x000000000010cc3c        0x4 ./drivers/pci/pci.o
                0x000000000010cc3c                pci
 COMMON         0x000000000010cc40       0x1c ./drivers/vga/vga.o
                0x000000000010cc40                vga_terminal
                0x000000000010cc44                Mode
 *fill*         0x000000000010cc5c        0x4 
 COMMON         0x000000000010cc60      0x15c ./drivers/serial/serial.o
                0x000000000010cc60                comportR
                0x000000000010cce0                serialport
                0x000000000010cd40                comportW
                0x000000000010cdb0                SerialThread
 COMMON         0x000000000010cdbc       0x10 ./drivers/gus/gus.o
                0x000000000010cdbc                gusThread
                0x000000000010cdc8                GUSMEM
 *fill*         0x000000000010cdcc       0x14 
 COMMON         0x000000000010cde0       0x2c ./drivers/sb/sb.o
                0x000000000010cde0                sb
                0x000000000010ce00                sbThread
 COMMON         0x000000000010ce0c        0xc ./drivers/ramdisk/ramdisk.o
                0x000000000010ce0c                default_ramdisk
 COMMON         0x000000000010ce18        0x4 ./drivers/hd/cache/hdCache.o
                0x000000000010ce18                hdb
 COMMON         0x000000000010ce1c       0x14 ./drivers/cmos/rtc.o
                0x000000000010ce1c                rtcstr
 COMMON         0x000000000010ce30        0xc ./core/statusline/statusline.o
                0x000000000010ce30                StatusLine
 COMMON         0x000000000010ce3c        0xc ./core/cp/centralprocessInit.o
                0x000000000010ce3c                centralprocessThread
 COMMON         0x000000000010ce48        0x4 ./core/chiplevel/pit.o
                0x000000000010ce48                pit
 COMMON         0x000000000010ce4c       0x1c ./core/chiplevel/llexception.o
                0x000000000010ce4c                exception
 COMMON         0x000000000010ce68        0xc ./core/chiplevel/gdtmanipulation.o
                0x000000000010ce68                kappDataSeg
                0x000000000010ce6c                gdtentsys
                0x000000000010ce70                kappCodeSeg
 *fill*         0x000000000010ce74        0xc 
 COMMON         0x000000000010ce80     0xa404 ./core/chiplevel/intdb.o
                0x000000000010ce80                intdb
 COMMON         0x0000000000117284       0x28 ./core/chiplevel/logging.o
                0x0000000000117284                LoggerThread
                0x0000000000117290                SystemLog
 COMMON         0x00000000001172ac        0xc ./core/chiplevel/IdleThread.o
                0x00000000001172ac                IdleThread
 COMMON         0x00000000001172b8        0xc ./core/hwdet/hwdet.o
                0x00000000001172b8                hwdetThread
 *fill*         0x00000000001172c4       0x1c 
 COMMON         0x00000000001172e0      0x59c ./init/sysglvar.o
                0x00000000001172e0                glvar
 COMMON         0x000000000011787c        0x8 ./init/vesa.o
                0x000000000011787c                vesainfo
                0x0000000000117880                vb
 *fill*         0x0000000000117884       0x1c 
 COMMON         0x00000000001178a0      0x2d0 ./init/init.o
                0x00000000001178a0                wholestring
                0x00000000001178c0                cmdpar
                0x0000000000117a60                str_device
                0x0000000000117b60                bios_data
 COMMON         0x0000000000117b70       0x10 ./init/system.o
                0x0000000000117b70                ShellThread
                0x0000000000117b7c                systemStarted
 COMMON         0x0000000000117b80      0x320 ./fs/jtmfs/jtmfs.o
                0x0000000000117b80                jtmfs_structure
                0x0000000000117ba0                debugstr
 COMMON         0x0000000000117ea0      0x104 ./fs/jtmfs/flexFat.o
                0x0000000000117ea0                flextmp
                0x0000000000117fa0                fle
 *fill*         0x0000000000117fa4       0x1c 
 COMMON         0x0000000000117fc0     0x535c ./fs/jtmfs/dirdb.o
                0x0000000000117fc0                dirdb
 COMMON         0x000000000011d31c       0x14 ./fs/jtmfs/jtmfsAccess.o
                0x000000000011d31c                jtmfsAccess
 *fill*         0x000000000011d330       0x10 
 COMMON         0x000000000011d340      0x11f ./fs/jtmfs/jtmfat.o
                0x000000000011d340                fatsys
                0x000000000011d360                __str
                0x000000000011d45f                _sbss = .
 *(.bss)
 .bss           0x000000000011d45f        0x0 init/start.o
 .bss           0x000000000011d45f        0x0 ./mm/mmBit.o
 .bss           0x000000000011d45f        0x0 ./mm/scanmem.o
 .bss           0x000000000011d45f        0x0 ./mm/mmEntry.o
 *fill*         0x000000000011d45f        0x1 
 .bss           0x000000000011d460        0xc ./mm/mm.o
                0x000000000011d460                mm_debug
                0x000000000011d464                mallocOK
                0x000000000011d468                p_mm
 .bss           0x000000000011d46c       0x1c ./mm/paging.o
                0x000000000011d46c                paging_enabled
 .bss           0x000000000011d488        0x0 ./mm/mmTest.o
 *fill*         0x000000000011d488       0x18 
 .bss           0x000000000011d4a0      0x110 ./mm/mmAlloc.o
                0x000000000011d4a0                malloc_caller
                0x000000000011d520                free_caller
 .bss           0x000000000011d5b0        0x0 ./drivers/driver_diskchange.o
 .bss           0x000000000011d5b0        0x4 ./drivers/driver_lock.o
                0x000000000011d5b0                daLock
 .bss           0x000000000011d5b4        0x0 ./drivers/driver_flush.o
 *fill*         0x000000000011d5b4        0xc 
 .bss           0x000000000011d5c0      0x800 ./drivers/driver_remdevcall.o
 .bss           0x000000000011ddc0        0x0 ./drivers/driver_api_devcall.o
 .bss           0x000000000011ddc0      0x218 ./drivers/driver_api.o
                0x000000000011ddc0                driver_dbFuncStr
                0x000000000011de24                driver_db
                0x000000000011de40                driver_lock
                0x000000000011dfd0                device_call_busy
                0x000000000011dfd4                dtravel
 .bss           0x000000000011dfd8        0x0 ./drivers/driver_rw.o
 .bss           0x000000000011dfd8        0x0 ./drivers/driver_init.o
 .bss           0x000000000011dfd8        0x0 ./drivers/driver_sys.o
 .bss           0x000000000011dfd8        0x0 ./drivers/driver_BlockCache.o
 *fill*         0x000000000011dfd8        0x8 
 .bss           0x000000000011dfe0      0x114 ./drivers/partsup/partsup.o
 .bss           0x000000000011e0f4       0x10 ./drivers/keyboard/keyb.o
                0x000000000011e0f4                syskey_terminate
 .bss           0x000000000011e104        0x4 ./drivers/keyboard/scanasc.o
                0x000000000011e104                reset_attempt
 .bss           0x000000000011e108        0x0 ./drivers/lpt/lpt.o
 .bss           0x000000000011e108        0x0 ./drivers/ega/ega.o
 .bss           0x000000000011e108        0x0 ./drivers/ega/ega_ansi.o
 .bss           0x000000000011e108        0x0 ./drivers/audio/audio.o
 *fill*         0x000000000011e108       0x18 
 .bss           0x000000000011e120      0x200 ./drivers/floppy/fdc_dev2.o
 .bss           0x000000000011e320        0x0 ./drivers/floppy/fdcCache.o
 .bss           0x000000000011e320      0x137 ./drivers/floppy/fdc.o
                0x000000000011e320                fdc_drive
 *fill*         0x000000000011e457        0x9 
 .bss           0x000000000011e460      0x831 ./drivers/floppy/fdcser.o
 *fill*         0x000000000011ec91        0xf 
 .bss           0x000000000011eca0      0x200 ./drivers/floppy/fdc_dev.o
 .bss           0x000000000011eea0        0x0 ./drivers/slip/slipKernelMain.o
 .bss           0x000000000011eea0      0x800 ./drivers/slip/slipDev.o
 .bss           0x000000000011f6a0      0x272 ./drivers/slip/slipLogin.o
 *fill*         0x000000000011f912        0xe 
 .bss           0x000000000011f920      0x844 ./drivers/slip/slipService.o
                0x000000000011f920                waitingClient
 .bss           0x0000000000120164        0x0 ./drivers/slip/slipConfig.o
 .bss           0x0000000000120164        0x8 ./drivers/slip/slipStack.o
                0x0000000000120164                n_packet
                0x0000000000120168                DO_PACKET_CAPTURING
 .bss           0x000000000012016c        0x1 ./drivers/slip/slip.o
                0x000000000012016c                slipOnline
 *fill*         0x000000000012016d        0x3 
 .bss           0x0000000000120170        0xd ./drivers/term/term.o
                0x0000000000120170                visible_terminal
                0x0000000000120174                puts_busy
                0x0000000000120178                terminalLockPID
                0x000000000012017c                dump_all_to_com1
 .bss           0x000000000012017d        0x0 ./drivers/null/null.o
 .bss           0x000000000012017d        0x0 ./drivers/mouse/SerialMouseDev.o
 *fill*         0x000000000012017d        0x3 
 .bss           0x0000000000120180        0xc ./drivers/mouse/ps2mouse.o
                0x0000000000120180                PS2MOUSE_TEST_OK
                0x0000000000120184                ps2mouse_counter
                0x0000000000120188                ps2mouse_enabled
 .bss           0x000000000012018c        0x0 ./drivers/mouse/SerialMouse.o
 .bss           0x000000000012018c        0x0 ./drivers/mouse/mouse.o
 .bss           0x000000000012018c        0x0 ./drivers/pci/pci.o
 .bss           0x000000000012018c        0x4 ./drivers/vmware/vmware.o
                0x000000000012018c                vmware
 .bss           0x0000000000120190        0x0 ./drivers/vga/sysvga.o
 .bss           0x0000000000120190        0x4 ./drivers/vga/vga.o
                0x0000000000120190                graphicModeActive
 .bss           0x0000000000120194        0x0 ./drivers/vga/sysgfx.o
 .bss           0x0000000000120194        0x4 ./drivers/alt/alt.o
 .bss           0x0000000000120198        0x0 ./drivers/serial/serial_dev.o
 *fill*         0x0000000000120198        0x8 
 .bss           0x00000000001201a0       0x34 ./drivers/serial/serial.o
                0x00000000001201a0                sline_speed
                0x00000000001201c8                bios_serial_ports
                0x00000000001201cc                primitiveSerial
                0x00000000001201d0                serialInitialized
 .bss           0x00000000001201d4        0x0 ./drivers/gus/gus.o
 .bss           0x00000000001201d4        0x0 ./drivers/sb/sb_dev.o
 .bss           0x00000000001201d4       0x1c ./drivers/sb/sb.o
 *fill*         0x00000000001201f0       0x10 
 .bss           0x0000000000120200      0x830 ./drivers/ramdisk/ramser.o
 *fill*         0x0000000000120a30       0x10 
 .bss           0x0000000000120a40       0x20 ./drivers/ramdisk/ramdisk.o
 .bss           0x0000000000120a60        0x2 ./drivers/hd/hdDetect.o
 *fill*         0x0000000000120a62        0x2 
 .bss           0x0000000000120a64        0x4 ./drivers/hd/hdDev.o
 .bss           0x0000000000120a68        0x4 ./drivers/hd/hdMisc.o
 .bss           0x0000000000120a6c       0x10 ./drivers/hd/hdBlockRW.o
 .bss           0x0000000000120a7c        0x4 ./drivers/hd/hdRW.o
 .bss           0x0000000000120a80        0x0 ./drivers/hd/hdIRQ.o
 .bss           0x0000000000120a80       0x10 ./drivers/hd/lowLBA.o
 .bss           0x0000000000120a90       0x10 ./drivers/hd/lowCHS.o
 .bss           0x0000000000120aa0        0x0 ./drivers/hd/hdReset.o
 .bss           0x0000000000120aa0      0x831 ./drivers/hd/hdService.o
 .bss           0x00000000001212d1        0x0 ./drivers/hd/chs.o
 *fill*         0x00000000001212d1        0xf 
 .bss           0x00000000001212e0       0x34 ./drivers/hd/hd.o
                0x00000000001212e0                ideirqtick
                0x0000000000121308                hd
                0x000000000012130c                chd
 .bss           0x0000000000121314        0x0 ./drivers/hd/cache/hdCacheEntry.o
 .bss           0x0000000000121314        0x8 ./drivers/hd/cache/hdCacheFlush.o
 .bss           0x000000000012131c        0x4 ./drivers/hd/cache/hdCache.o
                0x000000000012131c                hdCacheActive
 .bss           0x0000000000121320        0x0 ./drivers/hd/cache/hdCacheAccess.o
 .bss           0x0000000000121320        0x0 ./drivers/cmos/cmos.o
 .bss           0x0000000000121320       0x70 ./drivers/cmos/rtc.o
 .bss           0x0000000000121390        0x0 ./drivers/cmos/cmos_dev.o
 .bss           0x0000000000121390        0x0 ./drivers/tcp/tcp.o
 *fill*         0x0000000000121390       0x10 
 .bss           0x00000000001213a0     0x2020 ./drivers/tcp/ts.o
                0x00000000001213a0                tcp_debug
 .bss           0x00000000001233c0        0x0 ./drivers/tcp/www_server.o
 .bss           0x00000000001233c0        0x0 ./drivers/tcp/ConnectHost.o
 .bss           0x00000000001233c0        0x0 ./drivers/tcp/PacketDump.o
 .bss           0x00000000001233c0        0x0 ./drivers/tcp/rawpacket.o
 .bss           0x00000000001233c0    0x10000 ./drivers/tcp/SendPacket.o
 .bss           0x00000000001333c0        0xc ./drivers/tcp/tcpConfig.o
                0x00000000001333c0                ipma3
                0x00000000001333c4                ipad2
                0x00000000001333c8                ipad1
 .bss           0x00000000001333cc        0x0 ./drivers/tcp/tcpDev.o
 .bss           0x00000000001333cc        0x0 ./drivers/tcp/icmp.o
 *fill*         0x00000000001333cc       0x14 
 .bss           0x00000000001333e0     0x2020 ./drivers/tcp/tcpMain.o
                0x00000000001333e0                tcpOnline
 .bss           0x0000000000135400      0x824 ./drivers/tcp/tcpService.o
 .bss           0x0000000000135c24        0x0 ./drivers/tcp/ip.o
 .bss           0x0000000000135c24        0x0 ./drivers/tcp/tcpchksum.o
 *fill*         0x0000000000135c24       0x1c 
 .bss           0x0000000000135c40      0x1b0 ./drivers/tcp/socket.o
                0x0000000000135c40                outcomingPort
                0x0000000000135c44                incomingPort
                0x0000000000135c48                n_sockets
                0x0000000000135c60                socket
 .bss           0x0000000000135df0        0x0 ./drivers/zero/zero.o
 .bss           0x0000000000135df0        0x0 ./core/speaker/speaker.o
 .bss           0x0000000000135df0       0x10 ./core/dispadmin/dispadmin.o
 .bss           0x0000000000135e00        0x4 ./core/statusline/statusline.o
                0x0000000000135e00                statusline_terminate
 .bss           0x0000000000135e04        0x0 ./core/cp/centralprocessInit.o
 .bss           0x0000000000135e04       0x24 ./core/cp/exeidentificationmodule.o
                0x0000000000135e04                exeIdentAnythingGoes
 .bss           0x0000000000135e28        0xc ./core/cp/centralprocess.o
 .bss           0x0000000000135e34        0x4 ./core/cp/reboot.o
                0x0000000000135e34                rebootCommenced
 *fill*         0x0000000000135e38        0x8 
 .bss           0x0000000000135e40      0x100 ./core/cp/panic.o
 .bss           0x0000000000135f40        0x0 ./core/cp/LaunchApp.o
 .bss           0x0000000000135f40        0x0 ./core/cp/scheduler.o
 .bss           0x0000000000135f40        0x0 ./core/cp/errors.o
 .bss           0x0000000000135f40        0x4 ./core/cp/centralprocessMain.o
                0x0000000000135f40                reboot_now
 .bss           0x0000000000135f44        0xc ./core/cp/gpf.o
                0x0000000000135f44                irqActive
                0x0000000000135f48                EXCEPTION_HANDLER_ACTIVE
 .bss           0x0000000000135f50        0x0 ./core/speed/speed.o
 .bss           0x0000000000135f50        0x4 ./core/random/random.o
                0x0000000000135f50                _libc_trickery
 .bss           0x0000000000135f54        0x0 ./core/fixal/fixal.o
 .bss           0x0000000000135f54        0x0 ./core/dataproc/gets.o
 .bss           0x0000000000135f54        0x0 ./core/dataproc/memcpy.o
 .bss           0x0000000000135f54        0x0 ./core/dataproc/strchr.o
 .bss           0x0000000000135f54        0x0 ./core/dataproc/floorl.o
 .bss           0x0000000000135f54        0x8 ./core/dataproc/floatconv.o
 .bss           0x0000000000135f5c        0x0 ./core/dataproc/ctypefamily.o
 .bss           0x0000000000135f5c        0x0 ./core/dataproc/sprintf.o
 .bss           0x0000000000135f5c        0x0 ./core/dataproc/strtok_r.o
 .bss           0x0000000000135f5c        0x0 ./core/dataproc/modf.o
 .bss           0x0000000000135f5c        0x0 ./core/dataproc/printf.o
 .bss           0x0000000000135f5c        0x0 ./core/dataproc/strncat.o
 .bss           0x0000000000135f5c        0x0 ./core/dataproc/strcspn.o
 .bss           0x0000000000135f5c        0x0 ./core/dataproc/sscanf.o
 .bss           0x0000000000135f5c        0x4 ./core/dataproc/string.o
 .bss           0x0000000000135f60        0x0 ./core/dataproc/floor.o
 .bss           0x0000000000135f60        0x4 ./core/dataproc/strtok.o
 .bss           0x0000000000135f64        0x0 ./core/dataproc/strdup.o
 .bss           0x0000000000135f64        0x0 ./core/dataproc/strspn.o
 *fill*         0x0000000000135f64       0x1c 
 .bss           0x0000000000135f80       0x50 ./core/dataproc/cvt.o
 .bss           0x0000000000135fd0        0x0 ./core/dataproc/hexdump.o
 .bss           0x0000000000135fd0        0x0 ./core/useradmin/useradmin.o
 .bss           0x0000000000135fd0        0x0 ./core/chiplevel/postcommands.o
 .bss           0x0000000000135fd0        0x0 ./core/chiplevel/pit.o
 .bss           0x0000000000135fd0        0xc ./core/chiplevel/tss.o
                0x0000000000135fd0                n_curtss
 *fill*         0x0000000000135fdc        0x4 
 .bss           0x0000000000135fe0      0x110 ./core/chiplevel/llexception.o
 .bss           0x00000000001360f0        0x0 ./core/chiplevel/gdtmanipulation.o
 .bss           0x00000000001360f0        0x0 ./core/chiplevel/scs2.o
 .bss           0x00000000001360f0        0x0 ./core/chiplevel/corruption.o
 .bss           0x00000000001360f0        0x0 ./core/chiplevel/stack.o
 *fill*         0x00000000001360f0       0x10 
 .bss           0x0000000000136100      0xfa0 ./core/chiplevel/lock.o
 .bss           0x00000000001370a0        0x0 ./core/chiplevel/debug.o
 .bss           0x00000000001370a0        0x0 ./core/chiplevel/intdb.o
 .bss           0x00000000001370a0        0x0 ./core/chiplevel/intgdt.o
 .bss           0x00000000001370a0        0x0 ./core/chiplevel/exception.o
 .bss           0x00000000001370a0        0x0 ./core/chiplevel/delay.o
 .bss           0x00000000001370a0        0x8 ./core/chiplevel/int.o
                0x00000000001370a0                tasks
                0x00000000001370a4                gdt_table
 .bss           0x00000000001370a8        0x4 ./core/chiplevel/coprocessor_not_found.o
                0x00000000001370a8                mathHandling
 *fill*         0x00000000001370ac       0x14 
 .bss           0x00000000001370c0     0x2020 ./core/chiplevel/logging.o
                0x00000000001370c0                system_logging
 .bss           0x00000000001390e0        0x0 ./core/chiplevel/ansiwin.o
 .bss           0x00000000001390e0        0x0 ./core/chiplevel/io.o
 .bss           0x00000000001390e0      0x104 ./core/chiplevel/msgbox.o
 .bss           0x00000000001391e4        0x0 ./core/chiplevel/dma.o
 .bss           0x00000000001391e4        0x0 ./core/chiplevel/scs.o
 .bss           0x00000000001391e4        0x4 ./core/chiplevel/system_call.o
                0x00000000001391e4                scallsIsWorking
 .bss           0x00000000001391e8        0x4 ./core/chiplevel/IdleThread.o
                0x00000000001391e8                IdleThreadCounter
 .bss           0x00000000001391ec        0x0 ./core/chiplevel/exec.o
 .bss           0x00000000001391ec        0x0 ./core/chiplevel/dfunc.o
 .bss           0x00000000001391ec        0x0 ./core/chiplevel/scs_devices.o
 .bss           0x00000000001391ec        0x4 ./core/environment/envint.o
                0x00000000001391ec                kenv
 .bss           0x00000000001391f0        0x0 ./core/environment/env.o
 .bss           0x00000000001391f0       0x20 ./core/threads/threads.o
                0x00000000001391f0                Multitasking
 *fill*         0x0000000000139210       0x10 
 .bss           0x0000000000139220     0x58e4 ./core/threads/threads_db.o
                0x0000000000139220                force_switch_thread_nr
                0x0000000000139240                thread_msgbox
                0x0000000000139640                thread_eip
                0x0000000000139a40                thread_db
                0x0000000000139e40                thread_dnr
                0x000000000013a240                thread_idling
                0x000000000013a340                thread_cmdline
                0x000000000013a740                thread_special
                0x000000000013a840                thread_terminal
                0x000000000013a940                thread_memkb
                0x000000000013ab40                thread_banks
                0x000000000013ad40                thread_base
                0x000000000013b140                thread_ml
                0x000000000013b340                thread_selector
                0x000000000013b540                thread_gs
                0x000000000013b740                thread_fs
                0x000000000013b940                thread_es
                0x000000000013bb40                thread_ds
                0x000000000013bd40                thread_envdb
                0x000000000013c140                thread_fpuregs
                0x000000000013c540                thread_ss
                0x000000000013c740                thread_tick
                0x000000000013c840                thread_name
                0x000000000013cc40                thread_esps
                0x000000000013d040                thread_states
                0x000000000013d140                thread_datadescs
                0x000000000013d920                thread_codedescs
                0x000000000013e100                thread_type
                0x000000000013e200                thread_uniqid
                0x000000000013e600                thread_magic
                0x000000000013ea00                thread_scall_active
                0x000000000013eafc                nr_threads
                0x000000000013eb00                nr_curthread
 .bss           0x000000000013eb04        0x4 ./core/threads/threadSwitch.o
 .bss           0x000000000013eb08        0xc ./core/hwdet/hwdet.o
                0x000000000013eb08                hwdetDone
                0x000000000013eb0c                hwdetCounter
                0x000000000013eb10                alreadyCalled
 .bss           0x000000000013eb14        0x0 ./sh/plasma_app.o
 .bss           0x000000000013eb14        0x0 ./sh/debugapp.o
 .bss           0x000000000013eb14        0x0 ./sh/lsapp.o
 .bss           0x000000000013eb14        0x0 ./sh/getopt.o
 .bss           0x000000000013eb14        0x0 ./sh/formatapp.o
 .bss           0x000000000013eb14        0x0 ./sh/sh.o
 .bss           0x000000000013eb14        0x0 ./sh/chdirapp.o
 .bss           0x000000000013eb14        0x0 ./init/buffer.o
 .bss           0x000000000013eb14        0x0 ./init/sysglvar.o
 .bss           0x000000000013eb14        0x0 ./init/parse.o
 .bss           0x000000000013eb14        0x0 ./init/sysapp.o
 *fill*         0x000000000013eb14        0xc 
 .bss           0x000000000013eb20     0x7d20 ./init/initsystem.o
 .bss           0x0000000000146840       0x6c ./init/keropt.o
                0x0000000000146840                SLIP_COM_PORT_N
                0x0000000000146844                START_SLIP
                0x0000000000146848                SYSDEV_ENABLED
                0x000000000014684c                ALTDEV_ENABLED
                0x0000000000146850                SERIAL_MOUSE_COM
                0x0000000000146854                SYSNET_ENABLED
                0x0000000000146858                ENABLE_MOUSE_COM2
                0x000000000014685c                SERMOUSE_ENABLED
                0x0000000000146860                SB_ENABLED
                0x0000000000146864                GUS_ENABLED
                0x0000000000146868                AUDIO_ENABLED
                0x000000000014686c                ENABLE_STARTUP
                0x0000000000146870                XON_AUTOINSTALL
                0x0000000000146874                CMOS_ENABLED
                0x0000000000146878                CPU_SPEED_TEST_ENABLED
                0x000000000014687c                directFlushFS
                0x0000000000146880                CacheFilesInMemoryUsingDIRDB
                0x0000000000146884                devser_debug
                0x0000000000146888                EXTHD_ENABLED
                0x000000000014688c                FLOPPY2_ENABLED
                0x0000000000146890                STATUSLINE_ENABLED
                0x0000000000146894                XON_POSTMAN
                0x0000000000146898                XON_CACHEFLUSH
                0x000000000014689c                XON_IDLE
                0x00000000001468a0                serial_debug_line
                0x00000000001468a4                debug2
                0x00000000001468a8                jtmos_debug
 .bss           0x00000000001468ac       0x10 ./init/vesa.o
                0x00000000001468ac                vesa_enabled
                0x00000000001468b0                vesa_frame_buf
 .bss           0x00000000001468bc        0x8 ./init/init.o
                0x00000000001468bc                KINIT
                0x00000000001468c0                KernelInitPassed
 .bss           0x00000000001468c4        0x4 ./init/errno.o
                0x00000000001468c4                errno
 .bss           0x00000000001468c8        0x8 ./init/callapp.o
 .bss           0x00000000001468d0        0x4 ./init/biosfunc.o
 .bss           0x00000000001468d4        0x0 ./init/system.o
 .bss           0x00000000001468d4        0x0 ./init/foo.o
 .bss           0x00000000001468d4        0x0 ./init/test.o
 .bss           0x00000000001468d4        0x0 ./init/sysmisc.o
 .bss           0x00000000001468d4        0x0 ./init/xml/XML.o
 .bss           0x00000000001468d4        0x0 ./utils/mst.o
 .bss           0x00000000001468d4        0x0 ./fs/fgetsize.o
 .bss           0x00000000001468d4        0x0 ./fs/feof.o
 .bss           0x00000000001468d4        0x0 ./fs/link.o
 .bss           0x00000000001468d4        0x0 ./fs/fopen.o
 .bss           0x00000000001468d4        0x0 ./fs/_virtualfilesystem_devcall.o
 .bss           0x00000000001468d4        0x0 ./fs/freopen.o
 .bss           0x00000000001468d4        0x0 ./fs/fprintf.o
 .bss           0x00000000001468d4        0x0 ./fs/ftell.o
 .bss           0x00000000001468d4        0x0 ./fs/_close.o
 .bss           0x00000000001468d4        0x0 ./fs/_write.o
 .bss           0x00000000001468d4        0x4 ./fs/filedes.o
 .bss           0x00000000001468d8        0x0 ./fs/_mkdir.o
 .bss           0x00000000001468d8        0x0 ./fs/_lseek.o
 .bss           0x00000000001468d8        0x0 ./fs/_fgetsize.o
 .bss           0x00000000001468d8        0x0 ./fs/stat.o
 .bss           0x00000000001468d8        0x0 ./fs/_opensocket.o
 .bss           0x00000000001468d8        0x0 ./fs/_open.o
 .bss           0x00000000001468d8        0x0 ./fs/_stat.o
 .bss           0x00000000001468d8        0x0 ./fs/filebuf.o
 .bss           0x00000000001468d8        0x0 ./fs/_read.o
 .bss           0x00000000001468d8        0x0 ./fs/fseek.o
 .bss           0x00000000001468d8        0x0 ./fs/api.o
 .bss           0x00000000001468d8        0x0 ./fs/fflush.o
 .bss           0x00000000001468d8        0x0 ./fs/fsetsize.o
 .bss           0x00000000001468d8        0x0 ./fs/fclose.o
 .bss           0x00000000001468d8        0x0 ./fs/file.o
 .bss           0x00000000001468d8        0x0 ./fs/tmpnam.o
 .bss           0x00000000001468d8        0x0 ./fs/filedir.o
 .bss           0x00000000001468d8        0x0 ./fs/_chdir.o
 .bss           0x00000000001468d8        0x0 ./fs/filedesbuf.o
 .bss           0x00000000001468d8        0x0 ./fs/fat12/msdosio.o
 .bss           0x00000000001468d8        0x0 ./fs/jtmfs/jtmfsPath.o
 .bss           0x00000000001468d8        0x0 ./fs/jtmfs/fslast.o
 .bss           0x00000000001468d8       0x84 ./fs/jtmfs/directfileaccess.o
 *fill*         0x000000000014695c        0x4 
 .bss           0x0000000000146960       0x64 ./fs/jtmfs/fname_translation.o
 .bss           0x00000000001469c4        0x0 ./fs/jtmfs/isJTMFS.o
 *fill*         0x00000000001469c4       0x1c 
 .bss           0x00000000001469e0    0x242f4 ./fs/jtmfs/jtmfs.o
 .bss           0x000000000016acd4        0x0 ./fs/jtmfs/fsfind.o
 .bss           0x000000000016acd4        0x0 ./fs/jtmfs/dirdbWalk.o
 .bss           0x000000000016acd4        0x0 ./fs/jtmfs/flexCorruption.o
 .bss           0x000000000016acd4        0x0 ./fs/jtmfs/fsdev.o
 .bss           0x000000000016acd4       0x14 ./fs/jtmfs/dirdbFind.o
 .bss           0x000000000016ace8        0x0 ./fs/jtmfs/mount.o
 .bss           0x000000000016ace8        0x0 ./fs/jtmfs/createfat.o
 .bss           0x000000000016ace8        0x0 ./fs/jtmfs/fsadd.o
 *fill*         0x000000000016ace8       0x18 
 .bss           0x000000000016ad00      0x120 ./fs/jtmfs/flexFat.o
                0x000000000016ad00                flexActive
 .bss           0x000000000016ae20       0x20 ./fs/jtmfs/dirdbAccess.o
                0x000000000016ae20                roll
 .bss           0x000000000016ae40        0x0 ./fs/jtmfs/format.o
 .bss           0x000000000016ae40        0x0 ./fs/jtmfs/dirdbInformation.o
 .bss           0x000000000016ae40       0x34 ./fs/jtmfs/WriteChain.o
 *fill*         0x000000000016ae74        0xc 
 .bss           0x000000000016ae80      0x120 ./fs/jtmfs/writeDir.o
 .bss           0x000000000016afa0        0x0 ./fs/jtmfs/fsdos.o
 .bss           0x000000000016afa0        0x4 ./fs/jtmfs/dirdb.o
                0x000000000016afa0                dirdb_inited
 .bss           0x000000000016afa4        0x0 ./fs/jtmfs/jtmfsAccessInit.o
 .bss           0x000000000016afa4        0x0 ./fs/jtmfs/root.o
 .bss           0x000000000016afa4        0x0 ./fs/jtmfs/fswalk.o
 *fill*         0x000000000016afa4       0x1c 
 .bss           0x000000000016afc0      0x400 ./fs/jtmfs/jtmfsAccess.o
 .bss           0x000000000016b3c0     0x4054 ./fs/jtmfs/fsaddblocks.o
 .bss           0x000000000016f414       0x2c ./fs/jtmfs/ReadChain.o
 .bss           0x000000000016f440       0x34 ./fs/jtmfs/jtmfat.o
                0x000000000016f440                jtmfat_ready
                0x000000000016f444                BOOT_TMP_BUF
                0x000000000016f448                TMPSPACE1
                0x000000000016f44c                EntranceGetrootdir
 .bss           0x000000000016f474        0x0 ./fs/jtmfs/dir.o
 .bss           0x000000000016f474        0x0 ./fs/jtmfs/dirdbCorruption.o
                0x000000000016f474                _ebss = .
                0x000000000016f474                kernelend = .
                0x000000000016f474                _kernelend = .
Address of section .text set to 0x20000
OUTPUT(dosker32.bin binary)

.comment        0x0000000000000000     0x23b3
 .comment       0x0000000000000000       0x25 init/start.o
 .comment       0x0000000000000025       0x25 ./mm/mmBit.o
 .comment       0x000000000000004a       0x25 ./mm/scanmem.o
 .comment       0x000000000000006f       0x25 ./mm/mmEntry.o
 .comment       0x0000000000000094       0x25 ./mm/mm.o
 .comment       0x00000000000000b9       0x25 ./mm/paging.o
 .comment       0x00000000000000de       0x25 ./mm/mmTest.o
 .comment       0x0000000000000103       0x25 ./mm/mmAlloc.o
 .comment       0x0000000000000128       0x25 ./drivers/driver_diskchange.o
 .comment       0x000000000000014d       0x25 ./drivers/driver_lock.o
 .comment       0x0000000000000172       0x25 ./drivers/driver_flush.o
 .comment       0x0000000000000197       0x25 ./drivers/driver_remdevcall.o
 .comment       0x00000000000001bc       0x25 ./drivers/driver_api_devcall.o
 .comment       0x00000000000001e1       0x25 ./drivers/driver_api.o
 .comment       0x0000000000000206       0x25 ./drivers/driver_rw.o
 .comment       0x000000000000022b       0x25 ./drivers/driver_init.o
 .comment       0x0000000000000250       0x25 ./drivers/driver_sys.o
 .comment       0x0000000000000275       0x25 ./drivers/driver_BlockCache.o
 .comment       0x000000000000029a       0x25 ./drivers/partsup/partsup.o
 .comment       0x00000000000002bf       0x25 ./drivers/keyboard/keyb.o
 .comment       0x00000000000002e4       0x25 ./drivers/keyboard/scanasc.o
 .comment       0x0000000000000309       0x25 ./drivers/lpt/lpt.o
 .comment       0x000000000000032e       0x25 ./drivers/ega/ega.o
 .comment       0x0000000000000353       0x25 ./drivers/ega/ega_ansi.o
 .comment       0x0000000000000378       0x25 ./drivers/audio/audio.o
 .comment       0x000000000000039d       0x25 ./drivers/floppy/fdc_dev2.o
 .comment       0x00000000000003c2       0x25 ./drivers/floppy/fdcCache.o
 .comment       0x00000000000003e7       0x25 ./drivers/floppy/fdc.o
 .comment       0x000000000000040c       0x25 ./drivers/floppy/fdcser.o
 .comment       0x0000000000000431       0x25 ./drivers/floppy/fdc_dev.o
 .comment       0x0000000000000456       0x25 ./drivers/slip/slipKernelMain.o
 .comment       0x000000000000047b       0x25 ./drivers/slip/slipDev.o
 .comment       0x00000000000004a0       0x25 ./drivers/slip/slipLogin.o
 .comment       0x00000000000004c5       0x25 ./drivers/slip/slipService.o
 .comment       0x00000000000004ea       0x25 ./drivers/slip/slipConfig.o
 .comment       0x000000000000050f       0x25 ./drivers/slip/slipStack.o
 .comment       0x0000000000000534       0x25 ./drivers/slip/slip.o
 .comment       0x0000000000000559       0x25 ./drivers/term/term.o
 .comment       0x000000000000057e       0x25 ./drivers/null/null.o
 .comment       0x00000000000005a3       0x25 ./drivers/mouse/SerialMouseDev.o
 .comment       0x00000000000005c8       0x25 ./drivers/mouse/ps2mouse.o
 .comment       0x00000000000005ed       0x25 ./drivers/mouse/SerialMouse.o
 .comment       0x0000000000000612       0x25 ./drivers/mouse/mouse.o
 .comment       0x0000000000000637       0x25 ./drivers/pci/pci.o
 .comment       0x000000000000065c       0x25 ./drivers/vmware/vmware.o
 .comment       0x0000000000000681       0x25 ./drivers/vga/sysvga.o
 .comment       0x00000000000006a6       0x25 ./drivers/vga/vga.o
 .comment       0x00000000000006cb       0x25 ./drivers/vga/sysgfx.o
 .comment       0x00000000000006f0       0x25 ./drivers/alt/alt.o
 .comment       0x0000000000000715       0x25 ./drivers/serial/serial_dev.o
 .comment       0x000000000000073a       0x25 ./drivers/serial/serial.o
 .comment       0x000000000000075f       0x25 ./drivers/gus/gus.o
 .comment       0x0000000000000784       0x25 ./drivers/sb/sb_dev.o
 .comment       0x00000000000007a9       0x25 ./drivers/sb/sb.o
 .comment       0x00000000000007ce       0x25 ./drivers/ramdisk/ramser.o
 .comment       0x00000000000007f3       0x25 ./drivers/ramdisk/ramdisk.o
 .comment       0x0000000000000818       0x25 ./drivers/hd/hdDetect.o
 .comment       0x000000000000083d       0x25 ./drivers/hd/hdDev.o
 .comment       0x0000000000000862       0x25 ./drivers/hd/hdMisc.o
 .comment       0x0000000000000887       0x25 ./drivers/hd/hdBlockRW.o
 .comment       0x00000000000008ac       0x25 ./drivers/hd/hdRW.o
 .comment       0x00000000000008d1       0x25 ./drivers/hd/hdIRQ.o
 .comment       0x00000000000008f6       0x25 ./drivers/hd/lowLBA.o
 .comment       0x000000000000091b       0x25 ./drivers/hd/lowCHS.o
 .comment       0x0000000000000940       0x25 ./drivers/hd/hdReset.o
 .comment       0x0000000000000965       0x25 ./drivers/hd/hdService.o
 .comment       0x000000000000098a       0x25 ./drivers/hd/chs.o
 .comment       0x00000000000009af       0x25 ./drivers/hd/hd.o
 .comment       0x00000000000009d4       0x25 ./drivers/hd/cache/hdCacheEntry.o
 .comment       0x00000000000009f9       0x25 ./drivers/hd/cache/hdCacheFlush.o
 .comment       0x0000000000000a1e       0x25 ./drivers/hd/cache/hdCache.o
 .comment       0x0000000000000a43       0x25 ./drivers/hd/cache/hdCacheAccess.o
 .comment       0x0000000000000a68       0x25 ./drivers/cmos/cmos.o
 .comment       0x0000000000000a8d       0x25 ./drivers/cmos/rtc.o
 .comment       0x0000000000000ab2       0x25 ./drivers/cmos/cmos_dev.o
 .comment       0x0000000000000ad7       0x25 ./drivers/tcp/tcp.o
 .comment       0x0000000000000afc       0x25 ./drivers/tcp/ts.o
 .comment       0x0000000000000b21       0x25 ./drivers/tcp/www_server.o
 .comment       0x0000000000000b46       0x25 ./drivers/tcp/ConnectHost.o
 .comment       0x0000000000000b6b       0x25 ./drivers/tcp/PacketDump.o
 .comment       0x0000000000000b90       0x25 ./drivers/tcp/rawpacket.o
 .comment       0x0000000000000bb5       0x25 ./drivers/tcp/SendPacket.o
 .comment       0x0000000000000bda       0x25 ./drivers/tcp/tcpConfig.o
 .comment       0x0000000000000bff       0x25 ./drivers/tcp/tcpDev.o
 .comment       0x0000000000000c24       0x25 ./drivers/tcp/icmp.o
 .comment       0x0000000000000c49       0x25 ./drivers/tcp/tcpMain.o
 .comment       0x0000000000000c6e       0x25 ./drivers/tcp/tcpService.o
 .comment       0x0000000000000c93       0x25 ./drivers/tcp/ip.o
 .comment       0x0000000000000cb8       0x25 ./drivers/tcp/tcpchksum.o
 .comment       0x0000000000000cdd       0x25 ./drivers/tcp/socket.o
 .comment       0x0000000000000d02       0x25 ./drivers/zero/zero.o
 .comment       0x0000000000000d27       0x25 ./core/speaker/speaker.o
 .comment       0x0000000000000d4c       0x25 ./core/dispadmin/dispadmin.o
 .comment       0x0000000000000d71       0x25 ./core/statusline/statusline.o
 .comment       0x0000000000000d96       0x25 ./core/cp/centralprocessInit.o
 .comment       0x0000000000000dbb       0x25 ./core/cp/exeidentificationmodule.o
 .comment       0x0000000000000de0       0x25 ./core/cp/centralprocess.o
 .comment       0x0000000000000e05       0x25 ./core/cp/reboot.o
 .comment       0x0000000000000e2a       0x25 ./core/cp/panic.o
 .comment       0x0000000000000e4f       0x25 ./core/cp/LaunchApp.o
 .comment       0x0000000000000e74       0x25 ./core/cp/scheduler.o
 .comment       0x0000000000000e99       0x25 ./core/cp/errors.o
 .comment       0x0000000000000ebe       0x25 ./core/cp/centralprocessMain.o
 .comment       0x0000000000000ee3       0x25 ./core/cp/gpf.o
 .comment       0x0000000000000f08       0x25 ./core/speed/speed.o
 .comment       0x0000000000000f2d       0x25 ./core/random/random.o
 .comment       0x0000000000000f52       0x25 ./core/fixal/fixal.o
 .comment       0x0000000000000f77       0x25 ./core/dataproc/gets.o
 .comment       0x0000000000000f9c       0x25 ./core/dataproc/memcpy.o
 .comment       0x0000000000000fc1       0x25 ./core/dataproc/strchr.o
 .comment       0x0000000000000fe6       0x25 ./core/dataproc/floorl.o
 .comment       0x000000000000100b       0x25 ./core/dataproc/floatconv.o
 .comment       0x0000000000001030       0x25 ./core/dataproc/ctypefamily.o
 .comment       0x0000000000001055       0x25 ./core/dataproc/sprintf.o
 .comment       0x000000000000107a       0x25 ./core/dataproc/strtok_r.o
 .comment       0x000000000000109f       0x25 ./core/dataproc/modf.o
 .comment       0x00000000000010c4       0x25 ./core/dataproc/printf.o
 .comment       0x00000000000010e9       0x25 ./core/dataproc/strncat.o
 .comment       0x000000000000110e       0x25 ./core/dataproc/strcspn.o
 .comment       0x0000000000001133       0x25 ./core/dataproc/sscanf.o
 .comment       0x0000000000001158       0x25 ./core/dataproc/string.o
 .comment       0x000000000000117d       0x25 ./core/dataproc/floor.o
 .comment       0x00000000000011a2       0x25 ./core/dataproc/strtok.o
 .comment       0x00000000000011c7       0x25 ./core/dataproc/strdup.o
 .comment       0x00000000000011ec       0x25 ./core/dataproc/strspn.o
 .comment       0x0000000000001211       0x25 ./core/dataproc/cvt.o
 .comment       0x0000000000001236       0x25 ./core/dataproc/hexdump.o
 .comment       0x000000000000125b       0x25 ./core/useradmin/useradmin.o
 .comment       0x0000000000001280       0x25 ./core/chiplevel/postcommands.o
 .comment       0x00000000000012a5       0x25 ./core/chiplevel/pit.o
 .comment       0x00000000000012ca       0x25 ./core/chiplevel/tss.o
 .comment       0x00000000000012ef       0x25 ./core/chiplevel/llexception.o
 .comment       0x0000000000001314       0x25 ./core/chiplevel/gdtmanipulation.o
 .comment       0x0000000000001339       0x25 ./core/chiplevel/scs2.o
 .comment       0x000000000000135e       0x25 ./core/chiplevel/corruption.o
 .comment       0x0000000000001383       0x25 ./core/chiplevel/stack.o
 .comment       0x00000000000013a8       0x25 ./core/chiplevel/lock.o
 .comment       0x00000000000013cd       0x25 ./core/chiplevel/debug.o
 .comment       0x00000000000013f2       0x25 ./core/chiplevel/intdb.o
 .comment       0x0000000000001417       0x25 ./core/chiplevel/intgdt.o
 .comment       0x000000000000143c       0x25 ./core/chiplevel/exception.o
 .comment       0x0000000000001461       0x25 ./core/chiplevel/delay.o
 .comment       0x0000000000001486       0x25 ./core/chiplevel/int.o
 .comment       0x00000000000014ab       0x25 ./core/chiplevel/coprocessor_not_found.o
 .comment       0x00000000000014d0       0x25 ./core/chiplevel/logging.o
 .comment       0x00000000000014f5       0x25 ./core/chiplevel/ansiwin.o
 .comment       0x000000000000151a       0x25 ./core/chiplevel/io.o
 .comment       0x000000000000153f       0x25 ./core/chiplevel/msgbox.o
 .comment       0x0000000000001564       0x25 ./core/chiplevel/dma.o
 .comment       0x0000000000001589       0x25 ./core/chiplevel/scs.o
 .comment       0x00000000000015ae       0x25 ./core/chiplevel/system_call.o
 .comment       0x00000000000015d3       0x25 ./core/chiplevel/IdleThread.o
 .comment       0x00000000000015f8       0x25 ./core/chiplevel/exec.o
 .comment       0x000000000000161d       0x25 ./core/chiplevel/dfunc.o
 .comment       0x0000000000001642       0x25 ./core/chiplevel/scs_devices.o
 .comment       0x0000000000001667       0x25 ./core/environment/envint.o
 .comment       0x000000000000168c       0x25 ./core/environment/env.o
 .comment       0x00000000000016b1       0x25 ./core/threads/threads.o
 .comment       0x00000000000016d6       0x25 ./core/threads/threads_db.o
 .comment       0x00000000000016fb       0x25 ./core/threads/threadSwitch.o
 .comment       0x0000000000001720       0x25 ./core/hwdet/hwdet.o
 .comment       0x0000000000001745       0x25 ./sh/plasma_app.o
 .comment       0x000000000000176a       0x25 ./sh/debugapp.o
 .comment       0x000000000000178f       0x25 ./sh/lsapp.o
 .comment       0x00000000000017b4       0x25 ./sh/getopt.o
 .comment       0x00000000000017d9       0x25 ./sh/formatapp.o
 .comment       0x00000000000017fe       0x25 ./sh/sh.o
 .comment       0x0000000000001823       0x25 ./sh/chdirapp.o
 .comment       0x0000000000001848       0x25 ./init/buffer.o
 .comment       0x000000000000186d       0x25 ./init/sysglvar.o
 .comment       0x0000000000001892       0x25 ./init/parse.o
 .comment       0x00000000000018b7       0x25 ./init/sysapp.o
 .comment       0x00000000000018dc       0x25 ./init/initsystem.o
 .comment       0x0000000000001901       0x25 ./init/keropt.o
 .comment       0x0000000000001926       0x25 ./init/vesa.o
 .comment       0x000000000000194b       0x25 ./init/init.o
 .comment       0x0000000000001970       0x25 ./init/errno.o
 .comment       0x0000000000001995       0x25 ./init/callapp.o
 .comment       0x00000000000019ba       0x25 ./init/biosfunc.o
 .comment       0x00000000000019df       0x25 ./init/system.o
 .comment       0x0000000000001a04       0x25 ./init/foo.o
 .comment       0x0000000000001a29       0x25 ./init/test.o
 .comment       0x0000000000001a4e       0x25 ./init/sysmisc.o
 .comment       0x0000000000001a73       0x25 ./init/xml/XML.o
 .comment       0x0000000000001a98       0x25 ./utils/mst.o
 .comment       0x0000000000001abd       0x25 ./fs/fgetsize.o
 .comment       0x0000000000001ae2       0x25 ./fs/feof.o
 .comment       0x0000000000001b07       0x25 ./fs/link.o
 .comment       0x0000000000001b2c       0x25 ./fs/fopen.o
 .comment       0x0000000000001b51       0x25 ./fs/_virtualfilesystem_devcall.o
 .comment       0x0000000000001b76       0x25 ./fs/freopen.o
 .comment       0x0000000000001b9b       0x25 ./fs/fprintf.o
 .comment       0x0000000000001bc0       0x25 ./fs/ftell.o
 .comment       0x0000000000001be5       0x25 ./fs/_close.o
 .comment       0x0000000000001c0a       0x25 ./fs/_write.o
 .comment       0x0000000000001c2f       0x25 ./fs/filedes.o
 .comment       0x0000000000001c54       0x25 ./fs/_mkdir.o
 .comment       0x0000000000001c79       0x25 ./fs/_lseek.o
 .comment       0x0000000000001c9e       0x25 ./fs/_fgetsize.o
 .comment       0x0000000000001cc3       0x25 ./fs/stat.o
 .comment       0x0000000000001ce8       0x25 ./fs/_opensocket.o
 .comment       0x0000000000001d0d       0x25 ./fs/_open.o
 .comment       0x0000000000001d32       0x25 ./fs/_stat.o
 .comment       0x0000000000001d57       0x25 ./fs/filebuf.o
 .comment       0x0000000000001d7c       0x25 ./fs/_read.o
 .comment       0x0000000000001da1       0x25 ./fs/fseek.o
 .comment       0x0000000000001dc6       0x25 ./fs/api.o
 .comment       0x0000000000001deb       0x25 ./fs/fflush.o
 .comment       0x0000000000001e10       0x25 ./fs/fsetsize.o
 .comment       0x0000000000001e35       0x25 ./fs/fclose.o
 .comment       0x0000000000001e5a       0x25 ./fs/file.o
 .comment       0x0000000000001e7f       0x25 ./fs/tmpnam.o
 .comment       0x0000000000001ea4       0x25 ./fs/filedir.o
 .comment       0x0000000000001ec9       0x25 ./fs/_chdir.o
 .comment       0x0000000000001eee       0x25 ./fs/filedesbuf.o
 .comment       0x0000000000001f13       0x25 ./fs/fat12/msdosio.o
 .comment       0x0000000000001f38       0x25 ./fs/jtmfs/jtmfsPath.o
 .comment       0x0000000000001f5d       0x25 ./fs/jtmfs/fslast.o
 .comment       0x0000000000001f82       0x25 ./fs/jtmfs/directfileaccess.o
 .comment       0x0000000000001fa7       0x25 ./fs/jtmfs/fname_translation.o
 .comment       0x0000000000001fcc       0x25 ./fs/jtmfs/isJTMFS.o
 .comment       0x0000000000001ff1       0x25 ./fs/jtmfs/jtmfs.o
 .comment       0x0000000000002016       0x25 ./fs/jtmfs/fsfind.o
 .comment       0x000000000000203b       0x25 ./fs/jtmfs/dirdbWalk.o
 .comment       0x0000000000002060       0x25 ./fs/jtmfs/flexCorruption.o
 .comment       0x0000000000002085       0x25 ./fs/jtmfs/fsdev.o
 .comment       0x00000000000020aa       0x25 ./fs/jtmfs/dirdbFind.o
 .comment       0x00000000000020cf       0x25 ./fs/jtmfs/mount.o
 .comment       0x00000000000020f4       0x25 ./fs/jtmfs/createfat.o
 .comment       0x0000000000002119       0x25 ./fs/jtmfs/fsadd.o
 .comment       0x000000000000213e       0x25 ./fs/jtmfs/flexFat.o
 .comment       0x0000000000002163       0x25 ./fs/jtmfs/dirdbAccess.o
 .comment       0x0000000000002188       0x25 ./fs/jtmfs/format.o
 .comment       0x00000000000021ad       0x25 ./fs/jtmfs/dirdbInformation.o
 .comment       0x00000000000021d2       0x25 ./fs/jtmfs/WriteChain.o
 .comment       0x00000000000021f7       0x25 ./fs/jtmfs/writeDir.o
 .comment       0x000000000000221c       0x25 ./fs/jtmfs/fsdos.o
 .comment       0x0000000000002241       0x25 ./fs/jtmfs/dirdb.o
 .comment       0x0000000000002266       0x25 ./fs/jtmfs/jtmfsAccessInit.o
 .comment       0x000000000000228b       0x25 ./fs/jtmfs/root.o
 .comment       0x00000000000022b0       0x25 ./fs/jtmfs/fswalk.o
 .comment       0x00000000000022d5       0x25 ./fs/jtmfs/jtmfsAccess.o
 .comment       0x00000000000022fa       0x25 ./fs/jtmfs/fsaddblocks.o
 .comment       0x000000000000231f       0x25 ./fs/jtmfs/ReadChain.o
 .comment       0x0000000000002344       0x25 ./fs/jtmfs/jtmfat.o
 .comment       0x0000000000002369       0x25 ./fs/jtmfs/dir.o
 .comment       0x000000000000238e       0x25 ./fs/jtmfs/dirdbCorruption.o

.note.GNU-stack
                0x0000000000000000        0x0
 .note.GNU-stack
                0x0000000000000000        0x0 init/start.o
 .note.GNU-stack
                0x0000000000000000        0x0 ./mm/mmBit.o
 .note.GNU-stack
                0x0000000000000000        0x0 ./mm/scanmem.o
 .note.GNU-stack
                0x0000000000000000        0x0 ./mm/mmEntry.o
 .note.GNU-stack
                0x0000000000000000        0x0 ./mm/mm.o
 .note.GNU-stack
                0x0000000000000000        0x0 ./mm/paging.o
 .note.GNU-stack
                0x0000000000000000        0x0 ./mm/mmTest.o
 .note.GNU-stack
                0x0000000000000000        0x0 ./mm/mmAlloc.o
 .note.GNU-stack
                0x0000000000000000        0x0 ./drivers/driver_diskchange.o
 .note.GNU-stack
                0x0000000000000000        0x0 ./drivers/driver_lock.o
 .note.GNU-stack
                0x0000000000000000        0x0 ./drivers/driver_flush.o
 .note.GNU-stack
                0x0000000000000000        0x0 ./drivers/driver_remdevcall.o
 .note.GNU-stack
                0x0000000000000000        0x0 ./drivers/driver_api_devcall.o
 .note.GNU-stack
                0x0000000000000000        0x0 ./drivers/driver_api.o
 .note.GNU-stack
                0x0000000000000000        0x0 ./drivers/driver_rw.o
 .note.GNU-stack
                0x0000000000000000        0x0 ./drivers/driver_init.o
 .note.GNU-stack
                0x0000000000000000        0x0 ./drivers/driver_sys.o
 .note.GNU-stack
                0x0000000000000000        0x0 ./drivers/driver_BlockCache.o
 .note.GNU-stack
                0x0000000000000000        0x0 ./drivers/partsup/partsup.o
 .note.GNU-stack
                0x0000000000000000        0x0 ./drivers/keyboard/keyb.o
 .note.GNU-stack
                0x0000000000000000        0x0 ./drivers/keyboard/scanasc.o
 .note.GNU-stack
                0x0000000000000000        0x0 ./drivers/lpt/lpt.o
 .note.GNU-stack
                0x0000000000000000        0x0 ./drivers/ega/ega.o
 .note.GNU-stack
                0x0000000000000000        0x0 ./drivers/ega/ega_ansi.o
 .note.GNU-stack
                0x0000000000000000        0x0 ./drivers/audio/audio.o
 .note.GNU-stack
                0x0000000000000000        0x0 ./drivers/floppy/fdc_dev2.o
 .note.GNU-stack
                0x0000000000000000        0x0 ./drivers/floppy/fdcCache.o
 .note.GNU-stack
                0x0000000000000000        0x0 ./drivers/floppy/fdc.o
 .note.GNU-stack
                0x0000000000000000        0x0 ./drivers/floppy/fdcser.o
 .note.GNU-stack
                0x0000000000000000        0x0 ./drivers/floppy/fdc_dev.o
 .note.GNU-stack
                0x0000000000000000        0x0 ./drivers/slip/slipKernelMain.o
 .note.GNU-stack
                0x0000000000000000        0x0 ./drivers/slip/slipDev.o
 .note.GNU-stack
                0x0000000000000000        0x0 ./drivers/slip/slipLogin.o
 .note.GNU-stack
                0x0000000000000000        0x0 ./drivers/slip/slipService.o
 .note.GNU-stack
                0x0000000000000000        0x0 ./drivers/slip/slipConfig.o
 .note.GNU-stack
                0x0000000000000000        0x0 ./drivers/slip/slipStack.o
 .note.GNU-stack
                0x0000000000000000        0x0 ./drivers/slip/slip.o
 .note.GNU-stack
                0x0000000000000000        0x0 ./drivers/term/term.o
 .note.GNU-stack
                0x0000000000000000        0x0 ./drivers/null/null.o
 .note.GNU-stack
                0x0000000000000000        0x0 ./drivers/mouse/SerialMouseDev.o
 .note.GNU-stack
                0x0000000000000000        0x0 ./drivers/mouse/ps2mouse.o
 .note.GNU-stack
                0x0000000000000000        0x0 ./drivers/mouse/SerialMouse.o
 .note.GNU-stack
                0x0000000000000000        0x0 ./drivers/mouse/mouse.o
 .note.GNU-stack
                0x0000000000000000        0x0 ./drivers/pci/pci.o
 .note.GNU-stack
                0x0000000000000000        0x0 ./drivers/vmware/vmware.o
 .note.GNU-stack
                0x0000000000000000        0x0 ./drivers/vga/sysvga.o
 .note.GNU-stack
                0x0000000000000000        0x0 ./drivers/vga/vga.o
 .note.GNU-stack
                0x0000000000000000        0x0 ./drivers/vga/sysgfx.o
 .note.GNU-stack
                0x0000000000000000        0x0 ./drivers/alt/alt.o
 .note.GNU-stack
                0x0000000000000000        0x0 ./drivers/serial/serial_dev.o
 .note.GNU-stack
                0x0000000000000000        0x0 ./drivers/serial/serial.o
 .note.GNU-stack
                0x0000000000000000        0x0 ./drivers/gus/gus.o
 .note.GNU-stack
                0x0000000000000000        0x0 ./drivers/sb/sb_dev.o
 .note.GNU-stack
                0x0000000000000000        0x0 ./drivers/sb/sb.o
 .note.GNU-stack
                0x0000000000000000        0x0 ./drivers/ramdisk/ramser.o
 .note.GNU-stack
                0x0000000000000000        0x0 ./drivers/ramdisk/ramdisk.o
 .note.GNU-stack
                0x0000000000000000        0x0 ./drivers/hd/hdDetect.o
 .note.GNU-stack
                0x0000000000000000        0x0 ./drivers/hd/hdDev.o
 .note.GNU-stack
                0x0000000000000000        0x0 ./drivers/hd/hdMisc.o
 .note.GNU-stack
                0x0000000000000000        0x0 ./drivers/hd/hdBlockRW.o
 .note.GNU-stack
                0x0000000000000000        0x0 ./drivers/hd/hdRW.o
 .note.GNU-stack
                0x0000000000000000        0x0 ./drivers/hd/hdIRQ.o
 .note.GNU-stack
                0x0000000000000000        0x0 ./drivers/hd/lowLBA.o
 .note.GNU-stack
                0x0000000000000000        0x0 ./drivers/hd/lowCHS.o
 .note.GNU-stack
                0x0000000000000000        0x0 ./drivers/hd/hdReset.o
 .note.GNU-stack
                0x0000000000000000        0x0 ./drivers/hd/hdService.o
 .note.GNU-stack
                0x0000000000000000        0x0 ./drivers/hd/chs.o
 .note.GNU-stack
                0x0000000000000000        0x0 ./drivers/hd/hd.o
 .note.GNU-stack
                0x0000000000000000        0x0 ./drivers/hd/cache/hdCacheEntry.o
 .note.GNU-stack
                0x0000000000000000        0x0 ./drivers/hd/cache/hdCacheFlush.o
 .note.GNU-stack
                0x0000000000000000        0x0 ./drivers/hd/cache/hdCache.o
 .note.GNU-stack
                0x0000000000000000        0x0 ./drivers/hd/cache/hdCacheAccess.o
 .note.GNU-stack
                0x0000000000000000        0x0 ./drivers/cmos/cmos.o
 .note.GNU-stack
                0x0000000000000000        0x0 ./drivers/cmos/rtc.o
 .note.GNU-stack
                0x0000000000000000        0x0 ./drivers/cmos/cmos_dev.o
 .note.GNU-stack
                0x0000000000000000        0x0 ./drivers/tcp/tcp.o
 .note.GNU-stack
                0x0000000000000000        0x0 ./drivers/tcp/ts.o
 .note.GNU-stack
                0x0000000000000000        0x0 ./drivers/tcp/www_server.o
 .note.GNU-stack
                0x0000000000000000        0x0 ./drivers/tcp/ConnectHost.o
 .note.GNU-stack
                0x0000000000000000        0x0 ./drivers/tcp/PacketDump.o
 .note.GNU-stack
                0x0000000000000000        0x0 ./drivers/tcp/rawpacket.o
 .note.GNU-stack
                0x0000000000000000        0x0 ./drivers/tcp/SendPacket.o
 .note.GNU-stack
                0x0000000000000000        0x0 ./drivers/tcp/tcpConfig.o
 .note.GNU-stack
                0x0000000000000000        0x0 ./drivers/tcp/tcpDev.o
 .note.GNU-stack
                0x0000000000000000        0x0 ./drivers/tcp/icmp.o
 .note.GNU-stack
                0x0000000000000000        0x0 ./drivers/tcp/tcpMain.o
 .note.GNU-stack
                0x0000000000000000        0x0 ./drivers/tcp/tcpService.o
 .note.GNU-stack
                0x0000000000000000        0x0 ./drivers/tcp/ip.o
 .note.GNU-stack
                0x0000000000000000        0x0 ./drivers/tcp/tcpchksum.o
 .note.GNU-stack
                0x0000000000000000        0x0 ./drivers/tcp/socket.o
 .note.GNU-stack
                0x0000000000000000        0x0 ./drivers/zero/zero.o
 .note.GNU-stack
                0x0000000000000000        0x0 ./core/speaker/speaker.o
 .note.GNU-stack
                0x0000000000000000        0x0 ./core/dispadmin/dispadmin.o
 .note.GNU-stack
                0x0000000000000000        0x0 ./core/statusline/statusline.o
 .note.GNU-stack
                0x0000000000000000        0x0 ./core/cp/centralprocessInit.o
 .note.GNU-stack
                0x0000000000000000        0x0 ./core/cp/exeidentificationmodule.o
 .note.GNU-stack
                0x0000000000000000        0x0 ./core/cp/centralprocess.o
 .note.GNU-stack
                0x0000000000000000        0x0 ./core/cp/reboot.o
 .note.GNU-stack
                0x0000000000000000        0x0 ./core/cp/panic.o
 .note.GNU-stack
                0x0000000000000000        0x0 ./core/cp/LaunchApp.o
 .note.GNU-stack
                0x0000000000000000        0x0 ./core/cp/scheduler.o
 .note.GNU-stack
                0x0000000000000000        0x0 ./core/cp/errors.o
 .note.GNU-stack
                0x0000000000000000        0x0 ./core/cp/centralprocessMain.o
 .note.GNU-stack
                0x0000000000000000        0x0 ./core/cp/gpf.o
 .note.GNU-stack
                0x0000000000000000        0x0 ./core/speed/speed.o
 .note.GNU-stack
                0x0000000000000000        0x0 ./core/random/random.o
 .note.GNU-stack
                0x0000000000000000        0x0 ./core/fixal/fixal.o
 .note.GNU-stack
                0x0000000000000000        0x0 ./core/dataproc/gets.o
 .note.GNU-stack
                0x0000000000000000        0x0 ./core/dataproc/memcpy.o
 .note.GNU-stack
                0x0000000000000000        0x0 ./core/dataproc/strchr.o
 .note.GNU-stack
                0x0000000000000000        0x0 ./core/dataproc/floorl.o
 .note.GNU-stack
                0x0000000000000000        0x0 ./core/dataproc/floatconv.o
 .note.GNU-stack
                0x0000000000000000        0x0 ./core/dataproc/ctypefamily.o
 .note.GNU-stack
                0x0000000000000000        0x0 ./core/dataproc/sprintf.o
 .note.GNU-stack
                0x0000000000000000        0x0 ./core/dataproc/strtok_r.o
 .note.GNU-stack
                0x0000000000000000        0x0 ./core/dataproc/modf.o
 .note.GNU-stack
                0x0000000000000000        0x0 ./core/dataproc/printf.o
 .note.GNU-stack
                0x0000000000000000        0x0 ./core/dataproc/strncat.o
 .note.GNU-stack
                0x0000000000000000        0x0 ./core/dataproc/strcspn.o
 .note.GNU-stack
                0x0000000000000000        0x0 ./core/dataproc/sscanf.o
 .note.GNU-stack
                0x0000000000000000        0x0 ./core/dataproc/string.o
 .note.GNU-stack
                0x0000000000000000        0x0 ./core/dataproc/floor.o
 .note.GNU-stack
                0x0000000000000000        0x0 ./core/dataproc/strtok.o
 .note.GNU-stack
                0x0000000000000000        0x0 ./core/dataproc/strdup.o
 .note.GNU-stack
                0x0000000000000000        0x0 ./core/dataproc/strspn.o
 .note.GNU-stack
                0x0000000000000000        0x0 ./core/dataproc/cvt.o
 .note.GNU-stack
                0x0000000000000000        0x0 ./core/dataproc/hexdump.o
 .note.GNU-stack
                0x0000000000000000        0x0 ./core/useradmin/useradmin.o
 .note.GNU-stack
                0x0000000000000000        0x0 ./core/chiplevel/postcommands.o
 .note.GNU-stack
                0x0000000000000000        0x0 ./core/chiplevel/pit.o
 .note.GNU-stack
                0x0000000000000000        0x0 ./core/chiplevel/tss.o
 .note.GNU-stack
                0x0000000000000000        0x0 ./core/chiplevel/llexception.o
 .note.GNU-stack
                0x0000000000000000        0x0 ./core/chiplevel/gdtmanipulation.o
 .note.GNU-stack
                0x0000000000000000        0x0 ./core/chiplevel/scs2.o
 .note.GNU-stack
                0x0000000000000000        0x0 ./core/chiplevel/corruption.o
 .note.GNU-stack
                0x0000000000000000        0x0 ./core/chiplevel/stack.o
 .note.GNU-stack
                0x0000000000000000        0x0 ./core/chiplevel/lock.o
 .note.GNU-stack
                0x0000000000000000        0x0 ./core/chiplevel/debug.o
 .note.GNU-stack
                0x0000000000000000        0x0 ./core/chiplevel/intdb.o
 .note.GNU-stack
                0x0000000000000000        0x0 ./core/chiplevel/intgdt.o
 .note.GNU-stack
                0x0000000000000000        0x0 ./core/chiplevel/exception.o
 .note.GNU-stack
                0x0000000000000000        0x0 ./core/chiplevel/delay.o
 .note.GNU-stack
                0x0000000000000000        0x0 ./core/chiplevel/int.o
 .note.GNU-stack
                0x0000000000000000        0x0 ./core/chiplevel/coprocessor_not_found.o
 .note.GNU-stack
                0x0000000000000000        0x0 ./core/chiplevel/logging.o
 .note.GNU-stack
                0x0000000000000000        0x0 ./core/chiplevel/ansiwin.o
 .note.GNU-stack
                0x0000000000000000        0x0 ./core/chiplevel/io.o
 .note.GNU-stack
                0x0000000000000000        0x0 ./core/chiplevel/msgbox.o
 .note.GNU-stack
                0x0000000000000000        0x0 ./core/chiplevel/dma.o
 .note.GNU-stack
                0x0000000000000000        0x0 ./core/chiplevel/scs.o
 .note.GNU-stack
                0x0000000000000000        0x0 ./core/chiplevel/system_call.o
 .note.GNU-stack
                0x0000000000000000        0x0 ./core/chiplevel/IdleThread.o
 .note.GNU-stack
                0x0000000000000000        0x0 ./core/chiplevel/exec.o
 .note.GNU-stack
                0x0000000000000000        0x0 ./core/chiplevel/dfunc.o
 .note.GNU-stack
                0x0000000000000000        0x0 ./core/chiplevel/scs_devices.o
 .note.GNU-stack
                0x0000000000000000        0x0 ./core/environment/envint.o
 .note.GNU-stack
                0x0000000000000000        0x0 ./core/environment/env.o
 .note.GNU-stack
                0x0000000000000000        0x0 ./core/threads/threads.o
 .note.GNU-stack
                0x0000000000000000        0x0 ./core/threads/threads_db.o
 .note.GNU-stack
                0x0000000000000000        0x0 ./core/threads/threadSwitch.o
 .note.GNU-stack
                0x0000000000000000        0x0 ./core/hwdet/hwdet.o
 .note.GNU-stack
                0x0000000000000000        0x0 ./sh/plasma_app.o
 .note.GNU-stack
                0x0000000000000000        0x0 ./sh/debugapp.o
 .note.GNU-stack
                0x0000000000000000        0x0 ./sh/lsapp.o
 .note.GNU-stack
                0x0000000000000000        0x0 ./sh/getopt.o
 .note.GNU-stack
                0x0000000000000000        0x0 ./sh/formatapp.o
 .note.GNU-stack
                0x0000000000000000        0x0 ./sh/sh.o
 .note.GNU-stack
                0x0000000000000000        0x0 ./sh/chdirapp.o
 .note.GNU-stack
                0x0000000000000000        0x0 ./init/buffer.o
 .note.GNU-stack
                0x0000000000000000        0x0 ./init/sysglvar.o
 .note.GNU-stack
                0x0000000000000000        0x0 ./init/parse.o
 .note.GNU-stack
                0x0000000000000000        0x0 ./init/sysapp.o
 .note.GNU-stack
                0x0000000000000000        0x0 ./init/initsystem.o
 .note.GNU-stack
                0x0000000000000000        0x0 ./init/keropt.o
 .note.GNU-stack
                0x0000000000000000        0x0 ./init/vesa.o
 .note.GNU-stack
                0x0000000000000000        0x0 ./init/init.o
 .note.GNU-stack
                0x0000000000000000        0x0 ./init/errno.o
 .note.GNU-stack
                0x0000000000000000        0x0 ./init/callapp.o
 .note.GNU-stack
                0x0000000000000000        0x0 ./init/biosfunc.o
 .note.GNU-stack
                0x0000000000000000        0x0 ./init/system.o
 .note.GNU-stack
                0x0000000000000000        0x0 ./init/foo.o
 .note.GNU-stack
                0x0000000000000000        0x0 ./init/test.o
 .note.GNU-stack
                0x0000000000000000        0x0 ./init/sysmisc.o
 .note.GNU-stack
                0x0000000000000000        0x0 ./init/xml/XML.o
 .note.GNU-stack
                0x0000000000000000        0x0 ./utils/mst.o
 .note.GNU-stack
                0x0000000000000000        0x0 ./fs/fgetsize.o
 .note.GNU-stack
                0x0000000000000000        0x0 ./fs/feof.o
 .note.GNU-stack
                0x0000000000000000        0x0 ./fs/link.o
 .note.GNU-stack
                0x0000000000000000        0x0 ./fs/fopen.o
 .note.GNU-stack
                0x0000000000000000        0x0 ./fs/_virtualfilesystem_devcall.o
 .note.GNU-stack
                0x0000000000000000        0x0 ./fs/freopen.o
 .note.GNU-stack
                0x0000000000000000        0x0 ./fs/fprintf.o
 .note.GNU-stack
                0x0000000000000000        0x0 ./fs/ftell.o
 .note.GNU-stack
                0x0000000000000000        0x0 ./fs/_close.o
 .note.GNU-stack
                0x0000000000000000        0x0 ./fs/_write.o
 .note.GNU-stack
                0x0000000000000000        0x0 ./fs/filedes.o
 .note.GNU-stack
                0x0000000000000000        0x0 ./fs/_mkdir.o
 .note.GNU-stack
                0x0000000000000000        0x0 ./fs/_lseek.o
 .note.GNU-stack
                0x0000000000000000        0x0 ./fs/_fgetsize.o
 .note.GNU-stack
                0x0000000000000000        0x0 ./fs/stat.o
 .note.GNU-stack
                0x0000000000000000        0x0 ./fs/_opensocket.o
 .note.GNU-stack
                0x0000000000000000        0x0 ./fs/_open.o
 .note.GNU-stack
                0x0000000000000000        0x0 ./fs/_stat.o
 .note.GNU-stack
                0x0000000000000000        0x0 ./fs/filebuf.o
 .note.GNU-stack
                0x0000000000000000        0x0 ./fs/_read.o
 .note.GNU-stack
                0x0000000000000000        0x0 ./fs/fseek.o
 .note.GNU-stack
                0x0000000000000000        0x0 ./fs/api.o
 .note.GNU-stack
                0x0000000000000000        0x0 ./fs/fflush.o
 .note.GNU-stack
                0x0000000000000000        0x0 ./fs/fsetsize.o
 .note.GNU-stack
                0x0000000000000000        0x0 ./fs/fclose.o
 .note.GNU-stack
                0x0000000000000000        0x0 ./fs/file.o
 .note.GNU-stack
                0x0000000000000000        0x0 ./fs/tmpnam.o
 .note.GNU-stack
                0x0000000000000000        0x0 ./fs/filedir.o
 .note.GNU-stack
                0x0000000000000000        0x0 ./fs/_chdir.o
 .note.GNU-stack
                0x0000000000000000        0x0 ./fs/filedesbuf.o
 .note.GNU-stack
                0x0000000000000000        0x0 ./fs/fat12/msdosio.o
 .note.GNU-stack
                0x0000000000000000        0x0 ./fs/jtmfs/jtmfsPath.o
 .note.GNU-stack
                0x0000000000000000        0x0 ./fs/jtmfs/fslast.o
 .note.GNU-stack
                0x0000000000000000        0x0 ./fs/jtmfs/directfileaccess.o
 .note.GNU-stack
                0x0000000000000000        0x0 ./fs/jtmfs/fname_translation.o
 .note.GNU-stack
                0x0000000000000000        0x0 ./fs/jtmfs/isJTMFS.o
 .note.GNU-stack
                0x0000000000000000        0x0 ./fs/jtmfs/jtmfs.o
 .note.GNU-stack
                0x0000000000000000        0x0 ./fs/jtmfs/fsfind.o
 .note.GNU-stack
                0x0000000000000000        0x0 ./fs/jtmfs/dirdbWalk.o
 .note.GNU-stack
                0x0000000000000000        0x0 ./fs/jtmfs/flexCorruption.o
 .note.GNU-stack
                0x0000000000000000        0x0 ./fs/jtmfs/fsdev.o
 .note.GNU-stack
                0x0000000000000000        0x0 ./fs/jtmfs/dirdbFind.o
 .note.GNU-stack
                0x0000000000000000        0x0 ./fs/jtmfs/mount.o
 .note.GNU-stack
                0x0000000000000000        0x0 ./fs/jtmfs/createfat.o
 .note.GNU-stack
                0x0000000000000000        0x0 ./fs/jtmfs/fsadd.o
 .note.GNU-stack
                0x0000000000000000        0x0 ./fs/jtmfs/flexFat.o
 .note.GNU-stack
                0x0000000000000000        0x0 ./fs/jtmfs/dirdbAccess.o
 .note.GNU-stack
                0x0000000000000000        0x0 ./fs/jtmfs/format.o
 .note.GNU-stack
                0x0000000000000000        0x0 ./fs/jtmfs/dirdbInformation.o
 .note.GNU-stack
                0x0000000000000000        0x0 ./fs/jtmfs/WriteChain.o
 .note.GNU-stack
                0x0000000000000000        0x0 ./fs/jtmfs/writeDir.o
 .note.GNU-stack
                0x0000000000000000        0x0 ./fs/jtmfs/fsdos.o
 .note.GNU-stack
                0x0000000000000000        0x0 ./fs/jtmfs/dirdb.o
 .note.GNU-stack
                0x0000000000000000        0x0 ./fs/jtmfs/jtmfsAccessInit.o
 .note.GNU-stack
                0x0000000000000000        0x0 ./fs/jtmfs/root.o
 .note.GNU-stack
                0x0000000000000000        0x0 ./fs/jtmfs/fswalk.o
 .note.GNU-stack
                0x0000000000000000        0x0 ./fs/jtmfs/jtmfsAccess.o
 .note.GNU-stack
                0x0000000000000000        0x0 ./fs/jtmfs/fsaddblocks.o
 .note.GNU-stack
                0x0000000000000000        0x0 ./fs/jtmfs/ReadChain.o
 .note.GNU-stack
                0x0000000000000000        0x0 ./fs/jtmfs/jtmfat.o
 .note.GNU-stack
                0x0000000000000000        0x0 ./fs/jtmfs/dir.o
 .note.GNU-stack
                0x0000000000000000        0x0 ./fs/jtmfs/dirdbCorruption.o
